
ServoClock.elf:     file format elf32-littlearm

Sections:
Idx Name          Size      VMA       LMA       File off  Algn
  0 .isr_vector   00000198  08000000  08000000  00010000  2**0
                  CONTENTS, ALLOC, LOAD, READONLY, DATA
  1 .text         00002d6c  08000198  08000198  00010198  2**3
                  CONTENTS, ALLOC, LOAD, READONLY, CODE
  2 .rodata       00000078  08002f08  08002f08  00012f08  2**3
                  CONTENTS, ALLOC, LOAD, READONLY, DATA
  3 .ARM.extab    00000000  08002f80  08002f80  00020060  2**0
                  CONTENTS
  4 .ARM          00000000  08002f80  08002f80  00020060  2**0
                  CONTENTS
  5 .preinit_array 00000000  08002f80  08002f80  00020060  2**0
                  CONTENTS, ALLOC, LOAD, DATA
  6 .init_array   00000004  08002f80  08002f80  00012f80  2**2
                  CONTENTS, ALLOC, LOAD, DATA
  7 .fini_array   00000004  08002f84  08002f84  00012f84  2**2
                  CONTENTS, ALLOC, LOAD, DATA
  8 .data         00000060  20000000  08002f88  00020000  2**3
                  CONTENTS, ALLOC, LOAD, DATA
  9 .bss          00000170  20000060  08002fe8  00020060  2**2
                  ALLOC
 10 ._user_heap_stack 00000600  200001d0  08002fe8  000201d0  2**0
                  ALLOC
 11 .ARM.attributes 00000030  00000000  00000000  00020060  2**0
                  CONTENTS, READONLY
 12 .comment      00000043  00000000  00000000  00020090  2**0
                  CONTENTS, READONLY
 13 .debug_info   00001966  00000000  00000000  000200d3  2**0
                  CONTENTS, READONLY, DEBUGGING, OCTETS
 14 .debug_abbrev 000006e6  00000000  00000000  00021a39  2**0
                  CONTENTS, READONLY, DEBUGGING, OCTETS
 15 .debug_aranges 000001d0  00000000  00000000  00022120  2**3
                  CONTENTS, READONLY, DEBUGGING, OCTETS
 16 .debug_rnglists 00000138  00000000  00000000  000222f0  2**0
                  CONTENTS, READONLY, DEBUGGING, OCTETS
 17 .debug_macro  0000f7fd  00000000  00000000  00022428  2**0
                  CONTENTS, READONLY, DEBUGGING, OCTETS
 18 .debug_line   00002e5b  00000000  00000000  00031c25  2**0
                  CONTENTS, READONLY, DEBUGGING, OCTETS
 19 .debug_str    000540d1  00000000  00000000  00034a80  2**0
                  CONTENTS, READONLY, DEBUGGING, OCTETS
 20 .debug_frame  00000d28  00000000  00000000  00088b54  2**2
                  CONTENTS, READONLY, DEBUGGING, OCTETS
 21 .debug_line_str 00000061  00000000  00000000  0008987c  2**0
                  CONTENTS, READONLY, DEBUGGING, OCTETS

Disassembly of section .text:

08000198 <__do_global_dtors_aux>:
 8000198:	b510      	push	{r4, lr}
 800019a:	4c05      	ldr	r4, [pc, #20]	; (80001b0 <__do_global_dtors_aux+0x18>)
 800019c:	7823      	ldrb	r3, [r4, #0]
 800019e:	b933      	cbnz	r3, 80001ae <__do_global_dtors_aux+0x16>
 80001a0:	4b04      	ldr	r3, [pc, #16]	; (80001b4 <__do_global_dtors_aux+0x1c>)
 80001a2:	b113      	cbz	r3, 80001aa <__do_global_dtors_aux+0x12>
 80001a4:	4804      	ldr	r0, [pc, #16]	; (80001b8 <__do_global_dtors_aux+0x20>)
 80001a6:	f3af 8000 	nop.w
 80001aa:	2301      	movs	r3, #1
 80001ac:	7023      	strb	r3, [r4, #0]
 80001ae:	bd10      	pop	{r4, pc}
 80001b0:	20000060 	.word	0x20000060
 80001b4:	00000000 	.word	0x00000000
 80001b8:	08002eec 	.word	0x08002eec

080001bc <frame_dummy>:
 80001bc:	b508      	push	{r3, lr}
 80001be:	4b03      	ldr	r3, [pc, #12]	; (80001cc <frame_dummy+0x10>)
 80001c0:	b11b      	cbz	r3, 80001ca <frame_dummy+0xe>
 80001c2:	4903      	ldr	r1, [pc, #12]	; (80001d0 <frame_dummy+0x14>)
 80001c4:	4803      	ldr	r0, [pc, #12]	; (80001d4 <frame_dummy+0x18>)
 80001c6:	f3af 8000 	nop.w
 80001ca:	bd08      	pop	{r3, pc}
 80001cc:	00000000 	.word	0x00000000
 80001d0:	20000064 	.word	0x20000064
 80001d4:	08002eec 	.word	0x08002eec

080001d8 <__aeabi_drsub>:
 80001d8:	f081 4100 	eor.w	r1, r1, #2147483648	; 0x80000000
 80001dc:	e002      	b.n	80001e4 <__adddf3>
 80001de:	bf00      	nop

080001e0 <__aeabi_dsub>:
 80001e0:	f083 4300 	eor.w	r3, r3, #2147483648	; 0x80000000

080001e4 <__adddf3>:
 80001e4:	b530      	push	{r4, r5, lr}
 80001e6:	ea4f 0441 	mov.w	r4, r1, lsl #1
 80001ea:	ea4f 0543 	mov.w	r5, r3, lsl #1
 80001ee:	ea94 0f05 	teq	r4, r5
 80001f2:	bf08      	it	eq
 80001f4:	ea90 0f02 	teqeq	r0, r2
 80001f8:	bf1f      	itttt	ne
 80001fa:	ea54 0c00 	orrsne.w	ip, r4, r0
 80001fe:	ea55 0c02 	orrsne.w	ip, r5, r2
 8000202:	ea7f 5c64 	mvnsne.w	ip, r4, asr #21
 8000206:	ea7f 5c65 	mvnsne.w	ip, r5, asr #21
 800020a:	f000 80e2 	beq.w	80003d2 <__adddf3+0x1ee>
 800020e:	ea4f 5454 	mov.w	r4, r4, lsr #21
 8000212:	ebd4 5555 	rsbs	r5, r4, r5, lsr #21
 8000216:	bfb8      	it	lt
 8000218:	426d      	neglt	r5, r5
 800021a:	dd0c      	ble.n	8000236 <__adddf3+0x52>
 800021c:	442c      	add	r4, r5
 800021e:	ea80 0202 	eor.w	r2, r0, r2
 8000222:	ea81 0303 	eor.w	r3, r1, r3
 8000226:	ea82 0000 	eor.w	r0, r2, r0
 800022a:	ea83 0101 	eor.w	r1, r3, r1
 800022e:	ea80 0202 	eor.w	r2, r0, r2
 8000232:	ea81 0303 	eor.w	r3, r1, r3
 8000236:	2d36      	cmp	r5, #54	; 0x36
 8000238:	bf88      	it	hi
 800023a:	bd30      	pophi	{r4, r5, pc}
 800023c:	f011 4f00 	tst.w	r1, #2147483648	; 0x80000000
 8000240:	ea4f 3101 	mov.w	r1, r1, lsl #12
 8000244:	f44f 1c80 	mov.w	ip, #1048576	; 0x100000
 8000248:	ea4c 3111 	orr.w	r1, ip, r1, lsr #12
 800024c:	d002      	beq.n	8000254 <__adddf3+0x70>
 800024e:	4240      	negs	r0, r0
 8000250:	eb61 0141 	sbc.w	r1, r1, r1, lsl #1
 8000254:	f013 4f00 	tst.w	r3, #2147483648	; 0x80000000
 8000258:	ea4f 3303 	mov.w	r3, r3, lsl #12
 800025c:	ea4c 3313 	orr.w	r3, ip, r3, lsr #12
 8000260:	d002      	beq.n	8000268 <__adddf3+0x84>
 8000262:	4252      	negs	r2, r2
 8000264:	eb63 0343 	sbc.w	r3, r3, r3, lsl #1
 8000268:	ea94 0f05 	teq	r4, r5
 800026c:	f000 80a7 	beq.w	80003be <__adddf3+0x1da>
 8000270:	f1a4 0401 	sub.w	r4, r4, #1
 8000274:	f1d5 0e20 	rsbs	lr, r5, #32
 8000278:	db0d      	blt.n	8000296 <__adddf3+0xb2>
 800027a:	fa02 fc0e 	lsl.w	ip, r2, lr
 800027e:	fa22 f205 	lsr.w	r2, r2, r5
 8000282:	1880      	adds	r0, r0, r2
 8000284:	f141 0100 	adc.w	r1, r1, #0
 8000288:	fa03 f20e 	lsl.w	r2, r3, lr
 800028c:	1880      	adds	r0, r0, r2
 800028e:	fa43 f305 	asr.w	r3, r3, r5
 8000292:	4159      	adcs	r1, r3
 8000294:	e00e      	b.n	80002b4 <__adddf3+0xd0>
 8000296:	f1a5 0520 	sub.w	r5, r5, #32
 800029a:	f10e 0e20 	add.w	lr, lr, #32
 800029e:	2a01      	cmp	r2, #1
 80002a0:	fa03 fc0e 	lsl.w	ip, r3, lr
 80002a4:	bf28      	it	cs
 80002a6:	f04c 0c02 	orrcs.w	ip, ip, #2
 80002aa:	fa43 f305 	asr.w	r3, r3, r5
 80002ae:	18c0      	adds	r0, r0, r3
 80002b0:	eb51 71e3 	adcs.w	r1, r1, r3, asr #31
 80002b4:	f001 4500 	and.w	r5, r1, #2147483648	; 0x80000000
 80002b8:	d507      	bpl.n	80002ca <__adddf3+0xe6>
 80002ba:	f04f 0e00 	mov.w	lr, #0
 80002be:	f1dc 0c00 	rsbs	ip, ip, #0
 80002c2:	eb7e 0000 	sbcs.w	r0, lr, r0
 80002c6:	eb6e 0101 	sbc.w	r1, lr, r1
 80002ca:	f5b1 1f80 	cmp.w	r1, #1048576	; 0x100000
 80002ce:	d31b      	bcc.n	8000308 <__adddf3+0x124>
 80002d0:	f5b1 1f00 	cmp.w	r1, #2097152	; 0x200000
 80002d4:	d30c      	bcc.n	80002f0 <__adddf3+0x10c>
 80002d6:	0849      	lsrs	r1, r1, #1
 80002d8:	ea5f 0030 	movs.w	r0, r0, rrx
 80002dc:	ea4f 0c3c 	mov.w	ip, ip, rrx
 80002e0:	f104 0401 	add.w	r4, r4, #1
 80002e4:	ea4f 5244 	mov.w	r2, r4, lsl #21
 80002e8:	f512 0f80 	cmn.w	r2, #4194304	; 0x400000
 80002ec:	f080 809a 	bcs.w	8000424 <__adddf3+0x240>
 80002f0:	f1bc 4f00 	cmp.w	ip, #2147483648	; 0x80000000
 80002f4:	bf08      	it	eq
 80002f6:	ea5f 0c50 	movseq.w	ip, r0, lsr #1
 80002fa:	f150 0000 	adcs.w	r0, r0, #0
 80002fe:	eb41 5104 	adc.w	r1, r1, r4, lsl #20
 8000302:	ea41 0105 	orr.w	r1, r1, r5
 8000306:	bd30      	pop	{r4, r5, pc}
 8000308:	ea5f 0c4c 	movs.w	ip, ip, lsl #1
 800030c:	4140      	adcs	r0, r0
 800030e:	eb41 0101 	adc.w	r1, r1, r1
 8000312:	3c01      	subs	r4, #1
 8000314:	bf28      	it	cs
 8000316:	f5b1 1f80 	cmpcs.w	r1, #1048576	; 0x100000
 800031a:	d2e9      	bcs.n	80002f0 <__adddf3+0x10c>
 800031c:	f091 0f00 	teq	r1, #0
 8000320:	bf04      	itt	eq
 8000322:	4601      	moveq	r1, r0
 8000324:	2000      	moveq	r0, #0
 8000326:	fab1 f381 	clz	r3, r1
 800032a:	bf08      	it	eq
 800032c:	3320      	addeq	r3, #32
 800032e:	f1a3 030b 	sub.w	r3, r3, #11
 8000332:	f1b3 0220 	subs.w	r2, r3, #32
 8000336:	da0c      	bge.n	8000352 <__adddf3+0x16e>
 8000338:	320c      	adds	r2, #12
 800033a:	dd08      	ble.n	800034e <__adddf3+0x16a>
 800033c:	f102 0c14 	add.w	ip, r2, #20
 8000340:	f1c2 020c 	rsb	r2, r2, #12
 8000344:	fa01 f00c 	lsl.w	r0, r1, ip
 8000348:	fa21 f102 	lsr.w	r1, r1, r2
 800034c:	e00c      	b.n	8000368 <__adddf3+0x184>
 800034e:	f102 0214 	add.w	r2, r2, #20
 8000352:	bfd8      	it	le
 8000354:	f1c2 0c20 	rsble	ip, r2, #32
 8000358:	fa01 f102 	lsl.w	r1, r1, r2
 800035c:	fa20 fc0c 	lsr.w	ip, r0, ip
 8000360:	bfdc      	itt	le
 8000362:	ea41 010c 	orrle.w	r1, r1, ip
 8000366:	4090      	lslle	r0, r2
 8000368:	1ae4      	subs	r4, r4, r3
 800036a:	bfa2      	ittt	ge
 800036c:	eb01 5104 	addge.w	r1, r1, r4, lsl #20
 8000370:	4329      	orrge	r1, r5
 8000372:	bd30      	popge	{r4, r5, pc}
 8000374:	ea6f 0404 	mvn.w	r4, r4
 8000378:	3c1f      	subs	r4, #31
 800037a:	da1c      	bge.n	80003b6 <__adddf3+0x1d2>
 800037c:	340c      	adds	r4, #12
 800037e:	dc0e      	bgt.n	800039e <__adddf3+0x1ba>
 8000380:	f104 0414 	add.w	r4, r4, #20
 8000384:	f1c4 0220 	rsb	r2, r4, #32
 8000388:	fa20 f004 	lsr.w	r0, r0, r4
 800038c:	fa01 f302 	lsl.w	r3, r1, r2
 8000390:	ea40 0003 	orr.w	r0, r0, r3
 8000394:	fa21 f304 	lsr.w	r3, r1, r4
 8000398:	ea45 0103 	orr.w	r1, r5, r3
 800039c:	bd30      	pop	{r4, r5, pc}
 800039e:	f1c4 040c 	rsb	r4, r4, #12
 80003a2:	f1c4 0220 	rsb	r2, r4, #32
 80003a6:	fa20 f002 	lsr.w	r0, r0, r2
 80003aa:	fa01 f304 	lsl.w	r3, r1, r4
 80003ae:	ea40 0003 	orr.w	r0, r0, r3
 80003b2:	4629      	mov	r1, r5
 80003b4:	bd30      	pop	{r4, r5, pc}
 80003b6:	fa21 f004 	lsr.w	r0, r1, r4
 80003ba:	4629      	mov	r1, r5
 80003bc:	bd30      	pop	{r4, r5, pc}
 80003be:	f094 0f00 	teq	r4, #0
 80003c2:	f483 1380 	eor.w	r3, r3, #1048576	; 0x100000
 80003c6:	bf06      	itte	eq
 80003c8:	f481 1180 	eoreq.w	r1, r1, #1048576	; 0x100000
 80003cc:	3401      	addeq	r4, #1
 80003ce:	3d01      	subne	r5, #1
 80003d0:	e74e      	b.n	8000270 <__adddf3+0x8c>
 80003d2:	ea7f 5c64 	mvns.w	ip, r4, asr #21
 80003d6:	bf18      	it	ne
 80003d8:	ea7f 5c65 	mvnsne.w	ip, r5, asr #21
 80003dc:	d029      	beq.n	8000432 <__adddf3+0x24e>
 80003de:	ea94 0f05 	teq	r4, r5
 80003e2:	bf08      	it	eq
 80003e4:	ea90 0f02 	teqeq	r0, r2
 80003e8:	d005      	beq.n	80003f6 <__adddf3+0x212>
 80003ea:	ea54 0c00 	orrs.w	ip, r4, r0
 80003ee:	bf04      	itt	eq
 80003f0:	4619      	moveq	r1, r3
 80003f2:	4610      	moveq	r0, r2
 80003f4:	bd30      	pop	{r4, r5, pc}
 80003f6:	ea91 0f03 	teq	r1, r3
 80003fa:	bf1e      	ittt	ne
 80003fc:	2100      	movne	r1, #0
 80003fe:	2000      	movne	r0, #0
 8000400:	bd30      	popne	{r4, r5, pc}
 8000402:	ea5f 5c54 	movs.w	ip, r4, lsr #21
 8000406:	d105      	bne.n	8000414 <__adddf3+0x230>
 8000408:	0040      	lsls	r0, r0, #1
 800040a:	4149      	adcs	r1, r1
 800040c:	bf28      	it	cs
 800040e:	f041 4100 	orrcs.w	r1, r1, #2147483648	; 0x80000000
 8000412:	bd30      	pop	{r4, r5, pc}
 8000414:	f514 0480 	adds.w	r4, r4, #4194304	; 0x400000
 8000418:	bf3c      	itt	cc
 800041a:	f501 1180 	addcc.w	r1, r1, #1048576	; 0x100000
 800041e:	bd30      	popcc	{r4, r5, pc}
 8000420:	f001 4500 	and.w	r5, r1, #2147483648	; 0x80000000
 8000424:	f045 41fe 	orr.w	r1, r5, #2130706432	; 0x7f000000
 8000428:	f441 0170 	orr.w	r1, r1, #15728640	; 0xf00000
 800042c:	f04f 0000 	mov.w	r0, #0
 8000430:	bd30      	pop	{r4, r5, pc}
 8000432:	ea7f 5c64 	mvns.w	ip, r4, asr #21
 8000436:	bf1a      	itte	ne
 8000438:	4619      	movne	r1, r3
 800043a:	4610      	movne	r0, r2
 800043c:	ea7f 5c65 	mvnseq.w	ip, r5, asr #21
 8000440:	bf1c      	itt	ne
 8000442:	460b      	movne	r3, r1
 8000444:	4602      	movne	r2, r0
 8000446:	ea50 3401 	orrs.w	r4, r0, r1, lsl #12
 800044a:	bf06      	itte	eq
 800044c:	ea52 3503 	orrseq.w	r5, r2, r3, lsl #12
 8000450:	ea91 0f03 	teqeq	r1, r3
 8000454:	f441 2100 	orrne.w	r1, r1, #524288	; 0x80000
 8000458:	bd30      	pop	{r4, r5, pc}
 800045a:	bf00      	nop

0800045c <__aeabi_ui2d>:
 800045c:	f090 0f00 	teq	r0, #0
 8000460:	bf04      	itt	eq
 8000462:	2100      	moveq	r1, #0
 8000464:	4770      	bxeq	lr
 8000466:	b530      	push	{r4, r5, lr}
 8000468:	f44f 6480 	mov.w	r4, #1024	; 0x400
 800046c:	f104 0432 	add.w	r4, r4, #50	; 0x32
 8000470:	f04f 0500 	mov.w	r5, #0
 8000474:	f04f 0100 	mov.w	r1, #0
 8000478:	e750      	b.n	800031c <__adddf3+0x138>
 800047a:	bf00      	nop

0800047c <__aeabi_i2d>:
 800047c:	f090 0f00 	teq	r0, #0
 8000480:	bf04      	itt	eq
 8000482:	2100      	moveq	r1, #0
 8000484:	4770      	bxeq	lr
 8000486:	b530      	push	{r4, r5, lr}
 8000488:	f44f 6480 	mov.w	r4, #1024	; 0x400
 800048c:	f104 0432 	add.w	r4, r4, #50	; 0x32
 8000490:	f010 4500 	ands.w	r5, r0, #2147483648	; 0x80000000
 8000494:	bf48      	it	mi
 8000496:	4240      	negmi	r0, r0
 8000498:	f04f 0100 	mov.w	r1, #0
 800049c:	e73e      	b.n	800031c <__adddf3+0x138>
 800049e:	bf00      	nop

080004a0 <__aeabi_f2d>:
 80004a0:	0042      	lsls	r2, r0, #1
 80004a2:	ea4f 01e2 	mov.w	r1, r2, asr #3
 80004a6:	ea4f 0131 	mov.w	r1, r1, rrx
 80004aa:	ea4f 7002 	mov.w	r0, r2, lsl #28
 80004ae:	bf1f      	itttt	ne
 80004b0:	f012 437f 	andsne.w	r3, r2, #4278190080	; 0xff000000
 80004b4:	f093 4f7f 	teqne	r3, #4278190080	; 0xff000000
 80004b8:	f081 5160 	eorne.w	r1, r1, #939524096	; 0x38000000
 80004bc:	4770      	bxne	lr
 80004be:	f032 427f 	bics.w	r2, r2, #4278190080	; 0xff000000
 80004c2:	bf08      	it	eq
 80004c4:	4770      	bxeq	lr
 80004c6:	f093 4f7f 	teq	r3, #4278190080	; 0xff000000
 80004ca:	bf04      	itt	eq
 80004cc:	f441 2100 	orreq.w	r1, r1, #524288	; 0x80000
 80004d0:	4770      	bxeq	lr
 80004d2:	b530      	push	{r4, r5, lr}
 80004d4:	f44f 7460 	mov.w	r4, #896	; 0x380
 80004d8:	f001 4500 	and.w	r5, r1, #2147483648	; 0x80000000
 80004dc:	f021 4100 	bic.w	r1, r1, #2147483648	; 0x80000000
 80004e0:	e71c      	b.n	800031c <__adddf3+0x138>
 80004e2:	bf00      	nop

080004e4 <__aeabi_ul2d>:
 80004e4:	ea50 0201 	orrs.w	r2, r0, r1
 80004e8:	bf08      	it	eq
 80004ea:	4770      	bxeq	lr
 80004ec:	b530      	push	{r4, r5, lr}
 80004ee:	f04f 0500 	mov.w	r5, #0
 80004f2:	e00a      	b.n	800050a <__aeabi_l2d+0x16>

080004f4 <__aeabi_l2d>:
 80004f4:	ea50 0201 	orrs.w	r2, r0, r1
 80004f8:	bf08      	it	eq
 80004fa:	4770      	bxeq	lr
 80004fc:	b530      	push	{r4, r5, lr}
 80004fe:	f011 4500 	ands.w	r5, r1, #2147483648	; 0x80000000
 8000502:	d502      	bpl.n	800050a <__aeabi_l2d+0x16>
 8000504:	4240      	negs	r0, r0
 8000506:	eb61 0141 	sbc.w	r1, r1, r1, lsl #1
 800050a:	f44f 6480 	mov.w	r4, #1024	; 0x400
 800050e:	f104 0432 	add.w	r4, r4, #50	; 0x32
 8000512:	ea5f 5c91 	movs.w	ip, r1, lsr #22
 8000516:	f43f aed8 	beq.w	80002ca <__adddf3+0xe6>
 800051a:	f04f 0203 	mov.w	r2, #3
 800051e:	ea5f 0cdc 	movs.w	ip, ip, lsr #3
 8000522:	bf18      	it	ne
 8000524:	3203      	addne	r2, #3
 8000526:	ea5f 0cdc 	movs.w	ip, ip, lsr #3
 800052a:	bf18      	it	ne
 800052c:	3203      	addne	r2, #3
 800052e:	eb02 02dc 	add.w	r2, r2, ip, lsr #3
 8000532:	f1c2 0320 	rsb	r3, r2, #32
 8000536:	fa00 fc03 	lsl.w	ip, r0, r3
 800053a:	fa20 f002 	lsr.w	r0, r0, r2
 800053e:	fa01 fe03 	lsl.w	lr, r1, r3
 8000542:	ea40 000e 	orr.w	r0, r0, lr
 8000546:	fa21 f102 	lsr.w	r1, r1, r2
 800054a:	4414      	add	r4, r2
 800054c:	e6bd      	b.n	80002ca <__adddf3+0xe6>
 800054e:	bf00      	nop

08000550 <__aeabi_dmul>:
 8000550:	b570      	push	{r4, r5, r6, lr}
 8000552:	f04f 0cff 	mov.w	ip, #255	; 0xff
 8000556:	f44c 6ce0 	orr.w	ip, ip, #1792	; 0x700
 800055a:	ea1c 5411 	ands.w	r4, ip, r1, lsr #20
 800055e:	bf1d      	ittte	ne
 8000560:	ea1c 5513 	andsne.w	r5, ip, r3, lsr #20
 8000564:	ea94 0f0c 	teqne	r4, ip
 8000568:	ea95 0f0c 	teqne	r5, ip
 800056c:	f000 f8de 	bleq	800072c <__aeabi_dmul+0x1dc>
 8000570:	442c      	add	r4, r5
 8000572:	ea81 0603 	eor.w	r6, r1, r3
 8000576:	ea21 514c 	bic.w	r1, r1, ip, lsl #21
 800057a:	ea23 534c 	bic.w	r3, r3, ip, lsl #21
 800057e:	ea50 3501 	orrs.w	r5, r0, r1, lsl #12
 8000582:	bf18      	it	ne
 8000584:	ea52 3503 	orrsne.w	r5, r2, r3, lsl #12
 8000588:	f441 1180 	orr.w	r1, r1, #1048576	; 0x100000
 800058c:	f443 1380 	orr.w	r3, r3, #1048576	; 0x100000
 8000590:	d038      	beq.n	8000604 <__aeabi_dmul+0xb4>
 8000592:	fba0 ce02 	umull	ip, lr, r0, r2
 8000596:	f04f 0500 	mov.w	r5, #0
 800059a:	fbe1 e502 	umlal	lr, r5, r1, r2
 800059e:	f006 4200 	and.w	r2, r6, #2147483648	; 0x80000000
 80005a2:	fbe0 e503 	umlal	lr, r5, r0, r3
 80005a6:	f04f 0600 	mov.w	r6, #0
 80005aa:	fbe1 5603 	umlal	r5, r6, r1, r3
 80005ae:	f09c 0f00 	teq	ip, #0
 80005b2:	bf18      	it	ne
 80005b4:	f04e 0e01 	orrne.w	lr, lr, #1
 80005b8:	f1a4 04ff 	sub.w	r4, r4, #255	; 0xff
 80005bc:	f5b6 7f00 	cmp.w	r6, #512	; 0x200
 80005c0:	f564 7440 	sbc.w	r4, r4, #768	; 0x300
 80005c4:	d204      	bcs.n	80005d0 <__aeabi_dmul+0x80>
 80005c6:	ea5f 0e4e 	movs.w	lr, lr, lsl #1
 80005ca:	416d      	adcs	r5, r5
 80005cc:	eb46 0606 	adc.w	r6, r6, r6
 80005d0:	ea42 21c6 	orr.w	r1, r2, r6, lsl #11
 80005d4:	ea41 5155 	orr.w	r1, r1, r5, lsr #21
 80005d8:	ea4f 20c5 	mov.w	r0, r5, lsl #11
 80005dc:	ea40 505e 	orr.w	r0, r0, lr, lsr #21
 80005e0:	ea4f 2ece 	mov.w	lr, lr, lsl #11
 80005e4:	f1b4 0cfd 	subs.w	ip, r4, #253	; 0xfd
 80005e8:	bf88      	it	hi
 80005ea:	f5bc 6fe0 	cmphi.w	ip, #1792	; 0x700
 80005ee:	d81e      	bhi.n	800062e <__aeabi_dmul+0xde>
 80005f0:	f1be 4f00 	cmp.w	lr, #2147483648	; 0x80000000
 80005f4:	bf08      	it	eq
 80005f6:	ea5f 0e50 	movseq.w	lr, r0, lsr #1
 80005fa:	f150 0000 	adcs.w	r0, r0, #0
 80005fe:	eb41 5104 	adc.w	r1, r1, r4, lsl #20
 8000602:	bd70      	pop	{r4, r5, r6, pc}
 8000604:	f006 4600 	and.w	r6, r6, #2147483648	; 0x80000000
 8000608:	ea46 0101 	orr.w	r1, r6, r1
 800060c:	ea40 0002 	orr.w	r0, r0, r2
 8000610:	ea81 0103 	eor.w	r1, r1, r3
 8000614:	ebb4 045c 	subs.w	r4, r4, ip, lsr #1
 8000618:	bfc2      	ittt	gt
 800061a:	ebd4 050c 	rsbsgt	r5, r4, ip
 800061e:	ea41 5104 	orrgt.w	r1, r1, r4, lsl #20
 8000622:	bd70      	popgt	{r4, r5, r6, pc}
 8000624:	f441 1180 	orr.w	r1, r1, #1048576	; 0x100000
 8000628:	f04f 0e00 	mov.w	lr, #0
 800062c:	3c01      	subs	r4, #1
 800062e:	f300 80ab 	bgt.w	8000788 <__aeabi_dmul+0x238>
 8000632:	f114 0f36 	cmn.w	r4, #54	; 0x36
 8000636:	bfde      	ittt	le
 8000638:	2000      	movle	r0, #0
 800063a:	f001 4100 	andle.w	r1, r1, #2147483648	; 0x80000000
 800063e:	bd70      	pople	{r4, r5, r6, pc}
 8000640:	f1c4 0400 	rsb	r4, r4, #0
 8000644:	3c20      	subs	r4, #32
 8000646:	da35      	bge.n	80006b4 <__aeabi_dmul+0x164>
 8000648:	340c      	adds	r4, #12
 800064a:	dc1b      	bgt.n	8000684 <__aeabi_dmul+0x134>
 800064c:	f104 0414 	add.w	r4, r4, #20
 8000650:	f1c4 0520 	rsb	r5, r4, #32
 8000654:	fa00 f305 	lsl.w	r3, r0, r5
 8000658:	fa20 f004 	lsr.w	r0, r0, r4
 800065c:	fa01 f205 	lsl.w	r2, r1, r5
 8000660:	ea40 0002 	orr.w	r0, r0, r2
 8000664:	f001 4200 	and.w	r2, r1, #2147483648	; 0x80000000
 8000668:	f021 4100 	bic.w	r1, r1, #2147483648	; 0x80000000
 800066c:	eb10 70d3 	adds.w	r0, r0, r3, lsr #31
 8000670:	fa21 f604 	lsr.w	r6, r1, r4
 8000674:	eb42 0106 	adc.w	r1, r2, r6
 8000678:	ea5e 0e43 	orrs.w	lr, lr, r3, lsl #1
 800067c:	bf08      	it	eq
 800067e:	ea20 70d3 	biceq.w	r0, r0, r3, lsr #31
 8000682:	bd70      	pop	{r4, r5, r6, pc}
 8000684:	f1c4 040c 	rsb	r4, r4, #12
 8000688:	f1c4 0520 	rsb	r5, r4, #32
 800068c:	fa00 f304 	lsl.w	r3, r0, r4
 8000690:	fa20 f005 	lsr.w	r0, r0, r5
 8000694:	fa01 f204 	lsl.w	r2, r1, r4
 8000698:	ea40 0002 	orr.w	r0, r0, r2
 800069c:	f001 4100 	and.w	r1, r1, #2147483648	; 0x80000000
 80006a0:	eb10 70d3 	adds.w	r0, r0, r3, lsr #31
 80006a4:	f141 0100 	adc.w	r1, r1, #0
 80006a8:	ea5e 0e43 	orrs.w	lr, lr, r3, lsl #1
 80006ac:	bf08      	it	eq
 80006ae:	ea20 70d3 	biceq.w	r0, r0, r3, lsr #31
 80006b2:	bd70      	pop	{r4, r5, r6, pc}
 80006b4:	f1c4 0520 	rsb	r5, r4, #32
 80006b8:	fa00 f205 	lsl.w	r2, r0, r5
 80006bc:	ea4e 0e02 	orr.w	lr, lr, r2
 80006c0:	fa20 f304 	lsr.w	r3, r0, r4
 80006c4:	fa01 f205 	lsl.w	r2, r1, r5
 80006c8:	ea43 0302 	orr.w	r3, r3, r2
 80006cc:	fa21 f004 	lsr.w	r0, r1, r4
 80006d0:	f001 4100 	and.w	r1, r1, #2147483648	; 0x80000000
 80006d4:	fa21 f204 	lsr.w	r2, r1, r4
 80006d8:	ea20 0002 	bic.w	r0, r0, r2
 80006dc:	eb00 70d3 	add.w	r0, r0, r3, lsr #31
 80006e0:	ea5e 0e43 	orrs.w	lr, lr, r3, lsl #1
 80006e4:	bf08      	it	eq
 80006e6:	ea20 70d3 	biceq.w	r0, r0, r3, lsr #31
 80006ea:	bd70      	pop	{r4, r5, r6, pc}
 80006ec:	f094 0f00 	teq	r4, #0
 80006f0:	d10f      	bne.n	8000712 <__aeabi_dmul+0x1c2>
 80006f2:	f001 4600 	and.w	r6, r1, #2147483648	; 0x80000000
 80006f6:	0040      	lsls	r0, r0, #1
 80006f8:	eb41 0101 	adc.w	r1, r1, r1
 80006fc:	f411 1f80 	tst.w	r1, #1048576	; 0x100000
 8000700:	bf08      	it	eq
 8000702:	3c01      	subeq	r4, #1
 8000704:	d0f7      	beq.n	80006f6 <__aeabi_dmul+0x1a6>
 8000706:	ea41 0106 	orr.w	r1, r1, r6
 800070a:	f095 0f00 	teq	r5, #0
 800070e:	bf18      	it	ne
 8000710:	4770      	bxne	lr
 8000712:	f003 4600 	and.w	r6, r3, #2147483648	; 0x80000000
 8000716:	0052      	lsls	r2, r2, #1
 8000718:	eb43 0303 	adc.w	r3, r3, r3
 800071c:	f413 1f80 	tst.w	r3, #1048576	; 0x100000
 8000720:	bf08      	it	eq
 8000722:	3d01      	subeq	r5, #1
 8000724:	d0f7      	beq.n	8000716 <__aeabi_dmul+0x1c6>
 8000726:	ea43 0306 	orr.w	r3, r3, r6
 800072a:	4770      	bx	lr
 800072c:	ea94 0f0c 	teq	r4, ip
 8000730:	ea0c 5513 	and.w	r5, ip, r3, lsr #20
 8000734:	bf18      	it	ne
 8000736:	ea95 0f0c 	teqne	r5, ip
 800073a:	d00c      	beq.n	8000756 <__aeabi_dmul+0x206>
 800073c:	ea50 0641 	orrs.w	r6, r0, r1, lsl #1
 8000740:	bf18      	it	ne
 8000742:	ea52 0643 	orrsne.w	r6, r2, r3, lsl #1
 8000746:	d1d1      	bne.n	80006ec <__aeabi_dmul+0x19c>
 8000748:	ea81 0103 	eor.w	r1, r1, r3
 800074c:	f001 4100 	and.w	r1, r1, #2147483648	; 0x80000000
 8000750:	f04f 0000 	mov.w	r0, #0
 8000754:	bd70      	pop	{r4, r5, r6, pc}
 8000756:	ea50 0641 	orrs.w	r6, r0, r1, lsl #1
 800075a:	bf06      	itte	eq
 800075c:	4610      	moveq	r0, r2
 800075e:	4619      	moveq	r1, r3
 8000760:	ea52 0643 	orrsne.w	r6, r2, r3, lsl #1
 8000764:	d019      	beq.n	800079a <__aeabi_dmul+0x24a>
 8000766:	ea94 0f0c 	teq	r4, ip
 800076a:	d102      	bne.n	8000772 <__aeabi_dmul+0x222>
 800076c:	ea50 3601 	orrs.w	r6, r0, r1, lsl #12
 8000770:	d113      	bne.n	800079a <__aeabi_dmul+0x24a>
 8000772:	ea95 0f0c 	teq	r5, ip
 8000776:	d105      	bne.n	8000784 <__aeabi_dmul+0x234>
 8000778:	ea52 3603 	orrs.w	r6, r2, r3, lsl #12
 800077c:	bf1c      	itt	ne
 800077e:	4610      	movne	r0, r2
 8000780:	4619      	movne	r1, r3
 8000782:	d10a      	bne.n	800079a <__aeabi_dmul+0x24a>
 8000784:	ea81 0103 	eor.w	r1, r1, r3
 8000788:	f001 4100 	and.w	r1, r1, #2147483648	; 0x80000000
 800078c:	f041 41fe 	orr.w	r1, r1, #2130706432	; 0x7f000000
 8000790:	f441 0170 	orr.w	r1, r1, #15728640	; 0xf00000
 8000794:	f04f 0000 	mov.w	r0, #0
 8000798:	bd70      	pop	{r4, r5, r6, pc}
 800079a:	f041 41fe 	orr.w	r1, r1, #2130706432	; 0x7f000000
 800079e:	f441 0178 	orr.w	r1, r1, #16252928	; 0xf80000
 80007a2:	bd70      	pop	{r4, r5, r6, pc}

080007a4 <__aeabi_ddiv>:
 80007a4:	b570      	push	{r4, r5, r6, lr}
 80007a6:	f04f 0cff 	mov.w	ip, #255	; 0xff
 80007aa:	f44c 6ce0 	orr.w	ip, ip, #1792	; 0x700
 80007ae:	ea1c 5411 	ands.w	r4, ip, r1, lsr #20
 80007b2:	bf1d      	ittte	ne
 80007b4:	ea1c 5513 	andsne.w	r5, ip, r3, lsr #20
 80007b8:	ea94 0f0c 	teqne	r4, ip
 80007bc:	ea95 0f0c 	teqne	r5, ip
 80007c0:	f000 f8a7 	bleq	8000912 <__aeabi_ddiv+0x16e>
 80007c4:	eba4 0405 	sub.w	r4, r4, r5
 80007c8:	ea81 0e03 	eor.w	lr, r1, r3
 80007cc:	ea52 3503 	orrs.w	r5, r2, r3, lsl #12
 80007d0:	ea4f 3101 	mov.w	r1, r1, lsl #12
 80007d4:	f000 8088 	beq.w	80008e8 <__aeabi_ddiv+0x144>
 80007d8:	ea4f 3303 	mov.w	r3, r3, lsl #12
 80007dc:	f04f 5580 	mov.w	r5, #268435456	; 0x10000000
 80007e0:	ea45 1313 	orr.w	r3, r5, r3, lsr #4
 80007e4:	ea43 6312 	orr.w	r3, r3, r2, lsr #24
 80007e8:	ea4f 2202 	mov.w	r2, r2, lsl #8
 80007ec:	ea45 1511 	orr.w	r5, r5, r1, lsr #4
 80007f0:	ea45 6510 	orr.w	r5, r5, r0, lsr #24
 80007f4:	ea4f 2600 	mov.w	r6, r0, lsl #8
 80007f8:	f00e 4100 	and.w	r1, lr, #2147483648	; 0x80000000
 80007fc:	429d      	cmp	r5, r3
 80007fe:	bf08      	it	eq
 8000800:	4296      	cmpeq	r6, r2
 8000802:	f144 04fd 	adc.w	r4, r4, #253	; 0xfd
 8000806:	f504 7440 	add.w	r4, r4, #768	; 0x300
 800080a:	d202      	bcs.n	8000812 <__aeabi_ddiv+0x6e>
 800080c:	085b      	lsrs	r3, r3, #1
 800080e:	ea4f 0232 	mov.w	r2, r2, rrx
 8000812:	1ab6      	subs	r6, r6, r2
 8000814:	eb65 0503 	sbc.w	r5, r5, r3
 8000818:	085b      	lsrs	r3, r3, #1
 800081a:	ea4f 0232 	mov.w	r2, r2, rrx
 800081e:	f44f 1080 	mov.w	r0, #1048576	; 0x100000
 8000822:	f44f 2c00 	mov.w	ip, #524288	; 0x80000
 8000826:	ebb6 0e02 	subs.w	lr, r6, r2
 800082a:	eb75 0e03 	sbcs.w	lr, r5, r3
 800082e:	bf22      	ittt	cs
 8000830:	1ab6      	subcs	r6, r6, r2
 8000832:	4675      	movcs	r5, lr
 8000834:	ea40 000c 	orrcs.w	r0, r0, ip
 8000838:	085b      	lsrs	r3, r3, #1
 800083a:	ea4f 0232 	mov.w	r2, r2, rrx
 800083e:	ebb6 0e02 	subs.w	lr, r6, r2
 8000842:	eb75 0e03 	sbcs.w	lr, r5, r3
 8000846:	bf22      	ittt	cs
 8000848:	1ab6      	subcs	r6, r6, r2
 800084a:	4675      	movcs	r5, lr
 800084c:	ea40 005c 	orrcs.w	r0, r0, ip, lsr #1
 8000850:	085b      	lsrs	r3, r3, #1
 8000852:	ea4f 0232 	mov.w	r2, r2, rrx
 8000856:	ebb6 0e02 	subs.w	lr, r6, r2
 800085a:	eb75 0e03 	sbcs.w	lr, r5, r3
 800085e:	bf22      	ittt	cs
 8000860:	1ab6      	subcs	r6, r6, r2
 8000862:	4675      	movcs	r5, lr
 8000864:	ea40 009c 	orrcs.w	r0, r0, ip, lsr #2
 8000868:	085b      	lsrs	r3, r3, #1
 800086a:	ea4f 0232 	mov.w	r2, r2, rrx
 800086e:	ebb6 0e02 	subs.w	lr, r6, r2
 8000872:	eb75 0e03 	sbcs.w	lr, r5, r3
 8000876:	bf22      	ittt	cs
 8000878:	1ab6      	subcs	r6, r6, r2
 800087a:	4675      	movcs	r5, lr
 800087c:	ea40 00dc 	orrcs.w	r0, r0, ip, lsr #3
 8000880:	ea55 0e06 	orrs.w	lr, r5, r6
 8000884:	d018      	beq.n	80008b8 <__aeabi_ddiv+0x114>
 8000886:	ea4f 1505 	mov.w	r5, r5, lsl #4
 800088a:	ea45 7516 	orr.w	r5, r5, r6, lsr #28
 800088e:	ea4f 1606 	mov.w	r6, r6, lsl #4
 8000892:	ea4f 03c3 	mov.w	r3, r3, lsl #3
 8000896:	ea43 7352 	orr.w	r3, r3, r2, lsr #29
 800089a:	ea4f 02c2 	mov.w	r2, r2, lsl #3
 800089e:	ea5f 1c1c 	movs.w	ip, ip, lsr #4
 80008a2:	d1c0      	bne.n	8000826 <__aeabi_ddiv+0x82>
 80008a4:	f411 1f80 	tst.w	r1, #1048576	; 0x100000
 80008a8:	d10b      	bne.n	80008c2 <__aeabi_ddiv+0x11e>
 80008aa:	ea41 0100 	orr.w	r1, r1, r0
 80008ae:	f04f 0000 	mov.w	r0, #0
 80008b2:	f04f 4c00 	mov.w	ip, #2147483648	; 0x80000000
 80008b6:	e7b6      	b.n	8000826 <__aeabi_ddiv+0x82>
 80008b8:	f411 1f80 	tst.w	r1, #1048576	; 0x100000
 80008bc:	bf04      	itt	eq
 80008be:	4301      	orreq	r1, r0
 80008c0:	2000      	moveq	r0, #0
 80008c2:	f1b4 0cfd 	subs.w	ip, r4, #253	; 0xfd
 80008c6:	bf88      	it	hi
 80008c8:	f5bc 6fe0 	cmphi.w	ip, #1792	; 0x700
 80008cc:	f63f aeaf 	bhi.w	800062e <__aeabi_dmul+0xde>
 80008d0:	ebb5 0c03 	subs.w	ip, r5, r3
 80008d4:	bf04      	itt	eq
 80008d6:	ebb6 0c02 	subseq.w	ip, r6, r2
 80008da:	ea5f 0c50 	movseq.w	ip, r0, lsr #1
 80008de:	f150 0000 	adcs.w	r0, r0, #0
 80008e2:	eb41 5104 	adc.w	r1, r1, r4, lsl #20
 80008e6:	bd70      	pop	{r4, r5, r6, pc}
 80008e8:	f00e 4e00 	and.w	lr, lr, #2147483648	; 0x80000000
 80008ec:	ea4e 3111 	orr.w	r1, lr, r1, lsr #12
 80008f0:	eb14 045c 	adds.w	r4, r4, ip, lsr #1
 80008f4:	bfc2      	ittt	gt
 80008f6:	ebd4 050c 	rsbsgt	r5, r4, ip
 80008fa:	ea41 5104 	orrgt.w	r1, r1, r4, lsl #20
 80008fe:	bd70      	popgt	{r4, r5, r6, pc}
 8000900:	f441 1180 	orr.w	r1, r1, #1048576	; 0x100000
 8000904:	f04f 0e00 	mov.w	lr, #0
 8000908:	3c01      	subs	r4, #1
 800090a:	e690      	b.n	800062e <__aeabi_dmul+0xde>
 800090c:	ea45 0e06 	orr.w	lr, r5, r6
 8000910:	e68d      	b.n	800062e <__aeabi_dmul+0xde>
 8000912:	ea0c 5513 	and.w	r5, ip, r3, lsr #20
 8000916:	ea94 0f0c 	teq	r4, ip
 800091a:	bf08      	it	eq
 800091c:	ea95 0f0c 	teqeq	r5, ip
 8000920:	f43f af3b 	beq.w	800079a <__aeabi_dmul+0x24a>
 8000924:	ea94 0f0c 	teq	r4, ip
 8000928:	d10a      	bne.n	8000940 <__aeabi_ddiv+0x19c>
 800092a:	ea50 3401 	orrs.w	r4, r0, r1, lsl #12
 800092e:	f47f af34 	bne.w	800079a <__aeabi_dmul+0x24a>
 8000932:	ea95 0f0c 	teq	r5, ip
 8000936:	f47f af25 	bne.w	8000784 <__aeabi_dmul+0x234>
 800093a:	4610      	mov	r0, r2
 800093c:	4619      	mov	r1, r3
 800093e:	e72c      	b.n	800079a <__aeabi_dmul+0x24a>
 8000940:	ea95 0f0c 	teq	r5, ip
 8000944:	d106      	bne.n	8000954 <__aeabi_ddiv+0x1b0>
 8000946:	ea52 3503 	orrs.w	r5, r2, r3, lsl #12
 800094a:	f43f aefd 	beq.w	8000748 <__aeabi_dmul+0x1f8>
 800094e:	4610      	mov	r0, r2
 8000950:	4619      	mov	r1, r3
 8000952:	e722      	b.n	800079a <__aeabi_dmul+0x24a>
 8000954:	ea50 0641 	orrs.w	r6, r0, r1, lsl #1
 8000958:	bf18      	it	ne
 800095a:	ea52 0643 	orrsne.w	r6, r2, r3, lsl #1
 800095e:	f47f aec5 	bne.w	80006ec <__aeabi_dmul+0x19c>
 8000962:	ea50 0441 	orrs.w	r4, r0, r1, lsl #1
 8000966:	f47f af0d 	bne.w	8000784 <__aeabi_dmul+0x234>
 800096a:	ea52 0543 	orrs.w	r5, r2, r3, lsl #1
 800096e:	f47f aeeb 	bne.w	8000748 <__aeabi_dmul+0x1f8>
 8000972:	e712      	b.n	800079a <__aeabi_dmul+0x24a>

08000974 <__gedf2>:
 8000974:	f04f 3cff 	mov.w	ip, #4294967295	; 0xffffffff
 8000978:	e006      	b.n	8000988 <__cmpdf2+0x4>
 800097a:	bf00      	nop

0800097c <__ledf2>:
 800097c:	f04f 0c01 	mov.w	ip, #1
 8000980:	e002      	b.n	8000988 <__cmpdf2+0x4>
 8000982:	bf00      	nop

08000984 <__cmpdf2>:
 8000984:	f04f 0c01 	mov.w	ip, #1
 8000988:	f84d cd04 	str.w	ip, [sp, #-4]!
 800098c:	ea4f 0c41 	mov.w	ip, r1, lsl #1
 8000990:	ea7f 5c6c 	mvns.w	ip, ip, asr #21
 8000994:	ea4f 0c43 	mov.w	ip, r3, lsl #1
 8000998:	bf18      	it	ne
 800099a:	ea7f 5c6c 	mvnsne.w	ip, ip, asr #21
 800099e:	d01b      	beq.n	80009d8 <__cmpdf2+0x54>
 80009a0:	b001      	add	sp, #4
 80009a2:	ea50 0c41 	orrs.w	ip, r0, r1, lsl #1
 80009a6:	bf0c      	ite	eq
 80009a8:	ea52 0c43 	orrseq.w	ip, r2, r3, lsl #1
 80009ac:	ea91 0f03 	teqne	r1, r3
 80009b0:	bf02      	ittt	eq
 80009b2:	ea90 0f02 	teqeq	r0, r2
 80009b6:	2000      	moveq	r0, #0
 80009b8:	4770      	bxeq	lr
 80009ba:	f110 0f00 	cmn.w	r0, #0
 80009be:	ea91 0f03 	teq	r1, r3
 80009c2:	bf58      	it	pl
 80009c4:	4299      	cmppl	r1, r3
 80009c6:	bf08      	it	eq
 80009c8:	4290      	cmpeq	r0, r2
 80009ca:	bf2c      	ite	cs
 80009cc:	17d8      	asrcs	r0, r3, #31
 80009ce:	ea6f 70e3 	mvncc.w	r0, r3, asr #31
 80009d2:	f040 0001 	orr.w	r0, r0, #1
 80009d6:	4770      	bx	lr
 80009d8:	ea4f 0c41 	mov.w	ip, r1, lsl #1
 80009dc:	ea7f 5c6c 	mvns.w	ip, ip, asr #21
 80009e0:	d102      	bne.n	80009e8 <__cmpdf2+0x64>
 80009e2:	ea50 3c01 	orrs.w	ip, r0, r1, lsl #12
 80009e6:	d107      	bne.n	80009f8 <__cmpdf2+0x74>
 80009e8:	ea4f 0c43 	mov.w	ip, r3, lsl #1
 80009ec:	ea7f 5c6c 	mvns.w	ip, ip, asr #21
 80009f0:	d1d6      	bne.n	80009a0 <__cmpdf2+0x1c>
 80009f2:	ea52 3c03 	orrs.w	ip, r2, r3, lsl #12
 80009f6:	d0d3      	beq.n	80009a0 <__cmpdf2+0x1c>
 80009f8:	f85d 0b04 	ldr.w	r0, [sp], #4
 80009fc:	4770      	bx	lr
 80009fe:	bf00      	nop

08000a00 <__aeabi_cdrcmple>:
 8000a00:	4684      	mov	ip, r0
 8000a02:	4610      	mov	r0, r2
 8000a04:	4662      	mov	r2, ip
 8000a06:	468c      	mov	ip, r1
 8000a08:	4619      	mov	r1, r3
 8000a0a:	4663      	mov	r3, ip
 8000a0c:	e000      	b.n	8000a10 <__aeabi_cdcmpeq>
 8000a0e:	bf00      	nop

08000a10 <__aeabi_cdcmpeq>:
 8000a10:	b501      	push	{r0, lr}
 8000a12:	f7ff ffb7 	bl	8000984 <__cmpdf2>
 8000a16:	2800      	cmp	r0, #0
 8000a18:	bf48      	it	mi
 8000a1a:	f110 0f00 	cmnmi.w	r0, #0
 8000a1e:	bd01      	pop	{r0, pc}

08000a20 <__aeabi_dcmpeq>:
 8000a20:	f84d ed08 	str.w	lr, [sp, #-8]!
 8000a24:	f7ff fff4 	bl	8000a10 <__aeabi_cdcmpeq>
 8000a28:	bf0c      	ite	eq
 8000a2a:	2001      	moveq	r0, #1
 8000a2c:	2000      	movne	r0, #0
 8000a2e:	f85d fb08 	ldr.w	pc, [sp], #8
 8000a32:	bf00      	nop

08000a34 <__aeabi_dcmplt>:
 8000a34:	f84d ed08 	str.w	lr, [sp, #-8]!
 8000a38:	f7ff ffea 	bl	8000a10 <__aeabi_cdcmpeq>
 8000a3c:	bf34      	ite	cc
 8000a3e:	2001      	movcc	r0, #1
 8000a40:	2000      	movcs	r0, #0
 8000a42:	f85d fb08 	ldr.w	pc, [sp], #8
 8000a46:	bf00      	nop

08000a48 <__aeabi_dcmple>:
 8000a48:	f84d ed08 	str.w	lr, [sp, #-8]!
 8000a4c:	f7ff ffe0 	bl	8000a10 <__aeabi_cdcmpeq>
 8000a50:	bf94      	ite	ls
 8000a52:	2001      	movls	r0, #1
 8000a54:	2000      	movhi	r0, #0
 8000a56:	f85d fb08 	ldr.w	pc, [sp], #8
 8000a5a:	bf00      	nop

08000a5c <__aeabi_dcmpge>:
 8000a5c:	f84d ed08 	str.w	lr, [sp, #-8]!
 8000a60:	f7ff ffce 	bl	8000a00 <__aeabi_cdrcmple>
 8000a64:	bf94      	ite	ls
 8000a66:	2001      	movls	r0, #1
 8000a68:	2000      	movhi	r0, #0
 8000a6a:	f85d fb08 	ldr.w	pc, [sp], #8
 8000a6e:	bf00      	nop

08000a70 <__aeabi_dcmpgt>:
 8000a70:	f84d ed08 	str.w	lr, [sp, #-8]!
 8000a74:	f7ff ffc4 	bl	8000a00 <__aeabi_cdrcmple>
 8000a78:	bf34      	ite	cc
 8000a7a:	2001      	movcc	r0, #1
 8000a7c:	2000      	movcs	r0, #0
 8000a7e:	f85d fb08 	ldr.w	pc, [sp], #8
 8000a82:	bf00      	nop

08000a84 <__aeabi_dcmpun>:
 8000a84:	ea4f 0c41 	mov.w	ip, r1, lsl #1
 8000a88:	ea7f 5c6c 	mvns.w	ip, ip, asr #21
 8000a8c:	d102      	bne.n	8000a94 <__aeabi_dcmpun+0x10>
 8000a8e:	ea50 3c01 	orrs.w	ip, r0, r1, lsl #12
 8000a92:	d10a      	bne.n	8000aaa <__aeabi_dcmpun+0x26>
 8000a94:	ea4f 0c43 	mov.w	ip, r3, lsl #1
 8000a98:	ea7f 5c6c 	mvns.w	ip, ip, asr #21
 8000a9c:	d102      	bne.n	8000aa4 <__aeabi_dcmpun+0x20>
 8000a9e:	ea52 3c03 	orrs.w	ip, r2, r3, lsl #12
 8000aa2:	d102      	bne.n	8000aaa <__aeabi_dcmpun+0x26>
 8000aa4:	f04f 0000 	mov.w	r0, #0
 8000aa8:	4770      	bx	lr
 8000aaa:	f04f 0001 	mov.w	r0, #1
 8000aae:	4770      	bx	lr

08000ab0 <__aeabi_d2f>:
 8000ab0:	ea4f 0241 	mov.w	r2, r1, lsl #1
 8000ab4:	f1b2 43e0 	subs.w	r3, r2, #1879048192	; 0x70000000
 8000ab8:	bf24      	itt	cs
 8000aba:	f5b3 1c00 	subscs.w	ip, r3, #2097152	; 0x200000
 8000abe:	f1dc 5cfe 	rsbscs	ip, ip, #532676608	; 0x1fc00000
 8000ac2:	d90d      	bls.n	8000ae0 <__aeabi_d2f+0x30>
 8000ac4:	f001 4c00 	and.w	ip, r1, #2147483648	; 0x80000000
 8000ac8:	ea4f 02c0 	mov.w	r2, r0, lsl #3
 8000acc:	ea4c 7050 	orr.w	r0, ip, r0, lsr #29
 8000ad0:	f1b2 4f00 	cmp.w	r2, #2147483648	; 0x80000000
 8000ad4:	eb40 0083 	adc.w	r0, r0, r3, lsl #2
 8000ad8:	bf08      	it	eq
 8000ada:	f020 0001 	biceq.w	r0, r0, #1
 8000ade:	4770      	bx	lr
 8000ae0:	f011 4f80 	tst.w	r1, #1073741824	; 0x40000000
 8000ae4:	d121      	bne.n	8000b2a <__aeabi_d2f+0x7a>
 8000ae6:	f113 7238 	adds.w	r2, r3, #48234496	; 0x2e00000
 8000aea:	bfbc      	itt	lt
 8000aec:	f001 4000 	andlt.w	r0, r1, #2147483648	; 0x80000000
 8000af0:	4770      	bxlt	lr
 8000af2:	f441 1180 	orr.w	r1, r1, #1048576	; 0x100000
 8000af6:	ea4f 5252 	mov.w	r2, r2, lsr #21
 8000afa:	f1c2 0218 	rsb	r2, r2, #24
 8000afe:	f1c2 0c20 	rsb	ip, r2, #32
 8000b02:	fa10 f30c 	lsls.w	r3, r0, ip
 8000b06:	fa20 f002 	lsr.w	r0, r0, r2
 8000b0a:	bf18      	it	ne
 8000b0c:	f040 0001 	orrne.w	r0, r0, #1
 8000b10:	ea4f 23c1 	mov.w	r3, r1, lsl #11
 8000b14:	ea4f 23d3 	mov.w	r3, r3, lsr #11
 8000b18:	fa03 fc0c 	lsl.w	ip, r3, ip
 8000b1c:	ea40 000c 	orr.w	r0, r0, ip
 8000b20:	fa23 f302 	lsr.w	r3, r3, r2
 8000b24:	ea4f 0343 	mov.w	r3, r3, lsl #1
 8000b28:	e7cc      	b.n	8000ac4 <__aeabi_d2f+0x14>
 8000b2a:	ea7f 5362 	mvns.w	r3, r2, asr #21
 8000b2e:	d107      	bne.n	8000b40 <__aeabi_d2f+0x90>
 8000b30:	ea50 3301 	orrs.w	r3, r0, r1, lsl #12
 8000b34:	bf1e      	ittt	ne
 8000b36:	f04f 40fe 	movne.w	r0, #2130706432	; 0x7f000000
 8000b3a:	f440 0040 	orrne.w	r0, r0, #12582912	; 0xc00000
 8000b3e:	4770      	bxne	lr
 8000b40:	f001 4000 	and.w	r0, r1, #2147483648	; 0x80000000
 8000b44:	f040 40fe 	orr.w	r0, r0, #2130706432	; 0x7f000000
 8000b48:	f440 0000 	orr.w	r0, r0, #8388608	; 0x800000
 8000b4c:	4770      	bx	lr
 8000b4e:	bf00      	nop

08000b50 <uart_tx_init>:
void uart_write(int ch);
// Description: writes character data in DR
// once empty

/* Function Definitions */
void uart_tx_init(){
 8000b50:	b580      	push	{r7, lr}
 8000b52:	af00      	add	r7, sp, #0
    /* Enable clocks */
    RCC->AHB1ENR |= GPIOAEN;
 8000b54:	4b18      	ldr	r3, [pc, #96]	; (8000bb8 <uart_tx_init+0x68>)
 8000b56:	6b1b      	ldr	r3, [r3, #48]	; 0x30
 8000b58:	4a17      	ldr	r2, [pc, #92]	; (8000bb8 <uart_tx_init+0x68>)
 8000b5a:	f043 0301 	orr.w	r3, r3, #1
 8000b5e:	6313      	str	r3, [r2, #48]	; 0x30
    RCC->APB2ENR |= USART1EN;
 8000b60:	4b15      	ldr	r3, [pc, #84]	; (8000bb8 <uart_tx_init+0x68>)
 8000b62:	6c5b      	ldr	r3, [r3, #68]	; 0x44
 8000b64:	4a14      	ldr	r2, [pc, #80]	; (8000bb8 <uart_tx_init+0x68>)
 8000b66:	f043 0310 	orr.w	r3, r3, #16
 8000b6a:	6453      	str	r3, [r2, #68]	; 0x44

    /* Configure GPIOA Pin 9 */
    GPIOA->MODER |= PIN9_MODE;
 8000b6c:	4b13      	ldr	r3, [pc, #76]	; (8000bbc <uart_tx_init+0x6c>)
 8000b6e:	681b      	ldr	r3, [r3, #0]
 8000b70:	4a12      	ldr	r2, [pc, #72]	; (8000bbc <uart_tx_init+0x6c>)
 8000b72:	f443 2300 	orr.w	r3, r3, #524288	; 0x80000
 8000b76:	6013      	str	r3, [r2, #0]
    GPIOA->AFR[1] |= AF07;
 8000b78:	4b10      	ldr	r3, [pc, #64]	; (8000bbc <uart_tx_init+0x6c>)
 8000b7a:	6a5b      	ldr	r3, [r3, #36]	; 0x24
 8000b7c:	4a0f      	ldr	r2, [pc, #60]	; (8000bbc <uart_tx_init+0x6c>)
 8000b7e:	f043 0370 	orr.w	r3, r3, #112	; 0x70
 8000b82:	6253      	str	r3, [r2, #36]	; 0x24

    /* Configure USART */
    USART1->CR1 &= ~(CR1_UE); //disable uart
 8000b84:	4b0e      	ldr	r3, [pc, #56]	; (8000bc0 <uart_tx_init+0x70>)
 8000b86:	68db      	ldr	r3, [r3, #12]
 8000b88:	4a0d      	ldr	r2, [pc, #52]	; (8000bc0 <uart_tx_init+0x70>)
 8000b8a:	f423 5300 	bic.w	r3, r3, #8192	; 0x2000
 8000b8e:	60d3      	str	r3, [r2, #12]
    USART1->CR1 |= CR1_TE;
 8000b90:	4b0b      	ldr	r3, [pc, #44]	; (8000bc0 <uart_tx_init+0x70>)
 8000b92:	68db      	ldr	r3, [r3, #12]
 8000b94:	4a0a      	ldr	r2, [pc, #40]	; (8000bc0 <uart_tx_init+0x70>)
 8000b96:	f043 0308 	orr.w	r3, r3, #8
 8000b9a:	60d3      	str	r3, [r2, #12]
    uart_set_brr(APB2CLK, baud); 
 8000b9c:	f44f 31e1 	mov.w	r1, #115200	; 0x1c200
 8000ba0:	4808      	ldr	r0, [pc, #32]	; (8000bc4 <uart_tx_init+0x74>)
 8000ba2:	f000 f811 	bl	8000bc8 <uart_set_brr>
    USART1->CR1 |= CR1_UE;
 8000ba6:	4b06      	ldr	r3, [pc, #24]	; (8000bc0 <uart_tx_init+0x70>)
 8000ba8:	68db      	ldr	r3, [r3, #12]
 8000baa:	4a05      	ldr	r2, [pc, #20]	; (8000bc0 <uart_tx_init+0x70>)
 8000bac:	f443 5300 	orr.w	r3, r3, #8192	; 0x2000
 8000bb0:	60d3      	str	r3, [r2, #12]
}
 8000bb2:	bf00      	nop
 8000bb4:	bd80      	pop	{r7, pc}
 8000bb6:	bf00      	nop
 8000bb8:	40023800 	.word	0x40023800
 8000bbc:	40020000 	.word	0x40020000
 8000bc0:	40011000 	.word	0x40011000
 8000bc4:	00f42400 	.word	0x00f42400

08000bc8 <uart_set_brr>:
    /* Overwrite printf for debug */
    uart_write(ch); // send char through tx
    return ch;
}

void uart_set_brr(uint32_t periphCLK, uint32_t baudrate){
 8000bc8:	b480      	push	{r7}
 8000bca:	b085      	sub	sp, #20
 8000bcc:	af00      	add	r7, sp, #0
 8000bce:	6078      	str	r0, [r7, #4]
 8000bd0:	6039      	str	r1, [r7, #0]
    uint16_t uartdiv = periphCLK / baudrate;
 8000bd2:	687a      	ldr	r2, [r7, #4]
 8000bd4:	683b      	ldr	r3, [r7, #0]
 8000bd6:	fbb2 f3f3 	udiv	r3, r2, r3
 8000bda:	81fb      	strh	r3, [r7, #14]
    USART1->BRR = (((uartdiv / 16) << 4) | (uartdiv % 16));
 8000bdc:	89fb      	ldrh	r3, [r7, #14]
 8000bde:	091b      	lsrs	r3, r3, #4
 8000be0:	b29b      	uxth	r3, r3
 8000be2:	011a      	lsls	r2, r3, #4
 8000be4:	89fb      	ldrh	r3, [r7, #14]
 8000be6:	f003 030f 	and.w	r3, r3, #15
 8000bea:	431a      	orrs	r2, r3
 8000bec:	4b03      	ldr	r3, [pc, #12]	; (8000bfc <uart_set_brr+0x34>)
 8000bee:	609a      	str	r2, [r3, #8]
}
 8000bf0:	bf00      	nop
 8000bf2:	3714      	adds	r7, #20
 8000bf4:	46bd      	mov	sp, r7
 8000bf6:	f85d 7b04 	ldr.w	r7, [sp], #4
 8000bfa:	4770      	bx	lr
 8000bfc:	40011000 	.word	0x40011000

08000c00 <move_arm>:

/* function declarations */
void coordinate_to_rad(float x, float y);
float rad_to_degrees(float rad);

void move_arm(float x, float y){
 8000c00:	b580      	push	{r7, lr}
 8000c02:	ed2d 8b02 	vpush	{d8}
 8000c06:	b082      	sub	sp, #8
 8000c08:	af00      	add	r7, sp, #0
 8000c0a:	ed87 0a01 	vstr	s0, [r7, #4]
 8000c0e:	edc7 0a00 	vstr	s1, [r7]
	// functions needed for:
	// 	x-y to radians
	coordinate_to_rad(abs(x), y);
 8000c12:	edd7 7a01 	vldr	s15, [r7, #4]
 8000c16:	eefd 7ae7 	vcvt.s32.f32	s15, s15
 8000c1a:	ee17 3a90 	vmov	r3, s15
 8000c1e:	2b00      	cmp	r3, #0
 8000c20:	bfb8      	it	lt
 8000c22:	425b      	neglt	r3, r3
 8000c24:	ee07 3a90 	vmov	s15, r3
 8000c28:	eef8 7ae7 	vcvt.f32.s32	s15, s15
 8000c2c:	edd7 0a00 	vldr	s1, [r7]
 8000c30:	eeb0 0a67 	vmov.f32	s0, s15
 8000c34:	f000 f854 	bl	8000ce0 <coordinate_to_rad>

	//	radians to degree
	arm_degrees = rad_to_degrees(arm_radians);
 8000c38:	4b23      	ldr	r3, [pc, #140]	; (8000cc8 <move_arm+0xc8>)
 8000c3a:	edd3 7a00 	vldr	s15, [r3]
 8000c3e:	eeb0 0a67 	vmov.f32	s0, s15
 8000c42:	f000 f8e1 	bl	8000e08 <rad_to_degrees>
 8000c46:	eef0 7a40 	vmov.f32	s15, s0
 8000c4a:	4b20      	ldr	r3, [pc, #128]	; (8000ccc <move_arm+0xcc>)
 8000c4c:	edc3 7a00 	vstr	s15, [r3]
	base_degrees = 180.0 - rad_to_degrees(base_radians);
 8000c50:	4b1f      	ldr	r3, [pc, #124]	; (8000cd0 <move_arm+0xd0>)
 8000c52:	edd3 7a00 	vldr	s15, [r3]
 8000c56:	eeb0 0a67 	vmov.f32	s0, s15
 8000c5a:	f000 f8d5 	bl	8000e08 <rad_to_degrees>
 8000c5e:	ee10 3a10 	vmov	r3, s0
 8000c62:	4618      	mov	r0, r3
 8000c64:	f7ff fc1c 	bl	80004a0 <__aeabi_f2d>
 8000c68:	4602      	mov	r2, r0
 8000c6a:	460b      	mov	r3, r1
 8000c6c:	f04f 0000 	mov.w	r0, #0
 8000c70:	4918      	ldr	r1, [pc, #96]	; (8000cd4 <move_arm+0xd4>)
 8000c72:	f7ff fab5 	bl	80001e0 <__aeabi_dsub>
 8000c76:	4602      	mov	r2, r0
 8000c78:	460b      	mov	r3, r1
 8000c7a:	4610      	mov	r0, r2
 8000c7c:	4619      	mov	r1, r3
 8000c7e:	f7ff ff17 	bl	8000ab0 <__aeabi_d2f>
 8000c82:	4603      	mov	r3, r0
 8000c84:	4a14      	ldr	r2, [pc, #80]	; (8000cd8 <move_arm+0xd8>)
 8000c86:	6013      	str	r3, [r2, #0]

	//	map_to_servo
	//	move_servo
	move_servo(map_to_servo(base_degrees), map_to_servo(arm_degrees), x);
 8000c88:	4b13      	ldr	r3, [pc, #76]	; (8000cd8 <move_arm+0xd8>)
 8000c8a:	edd3 7a00 	vldr	s15, [r3]
 8000c8e:	eeb0 0a67 	vmov.f32	s0, s15
 8000c92:	f000 f9cb 	bl	800102c <map_to_servo>
 8000c96:	eeb0 8a40 	vmov.f32	s16, s0
 8000c9a:	4b0c      	ldr	r3, [pc, #48]	; (8000ccc <move_arm+0xcc>)
 8000c9c:	edd3 7a00 	vldr	s15, [r3]
 8000ca0:	eeb0 0a67 	vmov.f32	s0, s15
 8000ca4:	f000 f9c2 	bl	800102c <map_to_servo>
 8000ca8:	eef0 7a40 	vmov.f32	s15, s0
 8000cac:	ed97 1a01 	vldr	s2, [r7, #4]
 8000cb0:	eef0 0a67 	vmov.f32	s1, s15
 8000cb4:	eeb0 0a48 	vmov.f32	s0, s16
 8000cb8:	f000 f9e8 	bl	800108c <move_servo>
}
 8000cbc:	bf00      	nop
 8000cbe:	3708      	adds	r7, #8
 8000cc0:	46bd      	mov	sp, r7
 8000cc2:	ecbd 8b02 	vpop	{d8}
 8000cc6:	bd80      	pop	{r7, pc}
 8000cc8:	2000007c 	.word	0x2000007c
 8000ccc:	20000084 	.word	0x20000084
 8000cd0:	20000080 	.word	0x20000080
 8000cd4:	40668000 	.word	0x40668000
 8000cd8:	20000088 	.word	0x20000088
 8000cdc:	00000000 	.word	0x00000000

08000ce0 <coordinate_to_rad>:

void coordinate_to_rad(float x, float y){
 8000ce0:	b5b0      	push	{r4, r5, r7, lr}
 8000ce2:	b084      	sub	sp, #16
 8000ce4:	af00      	add	r7, sp, #0
 8000ce6:	ed87 0a01 	vstr	s0, [r7, #4]
 8000cea:	edc7 0a00 	vstr	s1, [r7]
	//write algo according to planning
	double sidei = sqrt(pow(x, 2) + pow(y, 2));	
 8000cee:	6878      	ldr	r0, [r7, #4]
 8000cf0:	f7ff fbd6 	bl	80004a0 <__aeabi_f2d>
 8000cf4:	4602      	mov	r2, r0
 8000cf6:	460b      	mov	r3, r1
 8000cf8:	ed9f 1b3d 	vldr	d1, [pc, #244]	; 8000df0 <coordinate_to_rad+0x110>
 8000cfc:	ec43 2b10 	vmov	d0, r2, r3
 8000d00:	f000 ffe6 	bl	8001cd0 <pow>
 8000d04:	ec55 4b10 	vmov	r4, r5, d0
 8000d08:	6838      	ldr	r0, [r7, #0]
 8000d0a:	f7ff fbc9 	bl	80004a0 <__aeabi_f2d>
 8000d0e:	4602      	mov	r2, r0
 8000d10:	460b      	mov	r3, r1
 8000d12:	ed9f 1b37 	vldr	d1, [pc, #220]	; 8000df0 <coordinate_to_rad+0x110>
 8000d16:	ec43 2b10 	vmov	d0, r2, r3
 8000d1a:	f000 ffd9 	bl	8001cd0 <pow>
 8000d1e:	ec53 2b10 	vmov	r2, r3, d0
 8000d22:	4620      	mov	r0, r4
 8000d24:	4629      	mov	r1, r5
 8000d26:	f7ff fa5d 	bl	80001e4 <__adddf3>
 8000d2a:	4602      	mov	r2, r0
 8000d2c:	460b      	mov	r3, r1
 8000d2e:	ec43 2b17 	vmov	d7, r2, r3
 8000d32:	eeb0 0a47 	vmov.f32	s0, s14
 8000d36:	eef0 0a67 	vmov.f32	s1, s15
 8000d3a:	f001 f839 	bl	8001db0 <sqrt>
 8000d3e:	ed87 0b02 	vstr	d0, [r7, #8]

	arm_radians = 2.0 * asin(sidei / (2.0 * SIDE_SIZE));
 8000d42:	f04f 0200 	mov.w	r2, #0
 8000d46:	4b2c      	ldr	r3, [pc, #176]	; (8000df8 <coordinate_to_rad+0x118>)
 8000d48:	e9d7 0102 	ldrd	r0, r1, [r7, #8]
 8000d4c:	f7ff fd2a 	bl	80007a4 <__aeabi_ddiv>
 8000d50:	4602      	mov	r2, r0
 8000d52:	460b      	mov	r3, r1
 8000d54:	ec43 2b17 	vmov	d7, r2, r3
 8000d58:	eeb0 0a47 	vmov.f32	s0, s14
 8000d5c:	eef0 0a67 	vmov.f32	s1, s15
 8000d60:	f000 fb0e 	bl	8001380 <asin>
 8000d64:	ec51 0b10 	vmov	r0, r1, d0
 8000d68:	4602      	mov	r2, r0
 8000d6a:	460b      	mov	r3, r1
 8000d6c:	f7ff fa3a 	bl	80001e4 <__adddf3>
 8000d70:	4602      	mov	r2, r0
 8000d72:	460b      	mov	r3, r1
 8000d74:	4610      	mov	r0, r2
 8000d76:	4619      	mov	r1, r3
 8000d78:	f7ff fe9a 	bl	8000ab0 <__aeabi_d2f>
 8000d7c:	4603      	mov	r3, r0
 8000d7e:	4a1f      	ldr	r2, [pc, #124]	; (8000dfc <coordinate_to_rad+0x11c>)
 8000d80:	6013      	str	r3, [r2, #0]
	base_radians = (atan(y / x) + acos( sidei / (2.0 * SIDE_SIZE)));
 8000d82:	ed97 7a00 	vldr	s14, [r7]
 8000d86:	edd7 7a01 	vldr	s15, [r7, #4]
 8000d8a:	eec7 6a27 	vdiv.f32	s13, s14, s15
 8000d8e:	ee16 0a90 	vmov	r0, s13
 8000d92:	f7ff fb85 	bl	80004a0 <__aeabi_f2d>
 8000d96:	4602      	mov	r2, r0
 8000d98:	460b      	mov	r3, r1
 8000d9a:	ec43 2b10 	vmov	d0, r2, r3
 8000d9e:	f001 f833 	bl	8001e08 <atan>
 8000da2:	ec55 4b10 	vmov	r4, r5, d0
 8000da6:	f04f 0200 	mov.w	r2, #0
 8000daa:	4b13      	ldr	r3, [pc, #76]	; (8000df8 <coordinate_to_rad+0x118>)
 8000dac:	e9d7 0102 	ldrd	r0, r1, [r7, #8]
 8000db0:	f7ff fcf8 	bl	80007a4 <__aeabi_ddiv>
 8000db4:	4602      	mov	r2, r0
 8000db6:	460b      	mov	r3, r1
 8000db8:	ec43 2b17 	vmov	d7, r2, r3
 8000dbc:	eeb0 0a47 	vmov.f32	s0, s14
 8000dc0:	eef0 0a67 	vmov.f32	s1, s15
 8000dc4:	f000 faa8 	bl	8001318 <acos>
 8000dc8:	ec53 2b10 	vmov	r2, r3, d0
 8000dcc:	4620      	mov	r0, r4
 8000dce:	4629      	mov	r1, r5
 8000dd0:	f7ff fa08 	bl	80001e4 <__adddf3>
 8000dd4:	4602      	mov	r2, r0
 8000dd6:	460b      	mov	r3, r1
 8000dd8:	4610      	mov	r0, r2
 8000dda:	4619      	mov	r1, r3
 8000ddc:	f7ff fe68 	bl	8000ab0 <__aeabi_d2f>
 8000de0:	4603      	mov	r3, r0
 8000de2:	4a07      	ldr	r2, [pc, #28]	; (8000e00 <coordinate_to_rad+0x120>)
 8000de4:	6013      	str	r3, [r2, #0]
}
 8000de6:	bf00      	nop
 8000de8:	3710      	adds	r7, #16
 8000dea:	46bd      	mov	sp, r7
 8000dec:	bdb0      	pop	{r4, r5, r7, pc}
 8000dee:	bf00      	nop
 8000df0:	00000000 	.word	0x00000000
 8000df4:	40000000 	.word	0x40000000
 8000df8:	40240000 	.word	0x40240000
 8000dfc:	2000007c 	.word	0x2000007c
 8000e00:	20000080 	.word	0x20000080
 8000e04:	00000000 	.word	0x00000000

08000e08 <rad_to_degrees>:

float rad_to_degrees(float rad){
 8000e08:	b580      	push	{r7, lr}
 8000e0a:	b082      	sub	sp, #8
 8000e0c:	af00      	add	r7, sp, #0
 8000e0e:	ed87 0a01 	vstr	s0, [r7, #4]
	return (rad * (180.0 / M_PI));
 8000e12:	6878      	ldr	r0, [r7, #4]
 8000e14:	f7ff fb44 	bl	80004a0 <__aeabi_f2d>
 8000e18:	a309      	add	r3, pc, #36	; (adr r3, 8000e40 <rad_to_degrees+0x38>)
 8000e1a:	e9d3 2300 	ldrd	r2, r3, [r3]
 8000e1e:	f7ff fb97 	bl	8000550 <__aeabi_dmul>
 8000e22:	4602      	mov	r2, r0
 8000e24:	460b      	mov	r3, r1
 8000e26:	4610      	mov	r0, r2
 8000e28:	4619      	mov	r1, r3
 8000e2a:	f7ff fe41 	bl	8000ab0 <__aeabi_d2f>
 8000e2e:	4603      	mov	r3, r0
 8000e30:	ee07 3a90 	vmov	s15, r3
}
 8000e34:	eeb0 0a67 	vmov.f32	s0, s15
 8000e38:	3708      	adds	r7, #8
 8000e3a:	46bd      	mov	sp, r7
 8000e3c:	bd80      	pop	{r7, pc}
 8000e3e:	bf00      	nop
 8000e40:	1a63c1f8 	.word	0x1a63c1f8
 8000e44:	404ca5dc 	.word	0x404ca5dc

08000e48 <main>:

/* Global variables */
volatile int seconds = 0;


int main(){
 8000e48:	b580      	push	{r7, lr}
 8000e4a:	af00      	add	r7, sp, #0
	/* Initialization functions */
	SystemInit();
 8000e4c:	f000 f836 	bl	8000ebc <SystemInit>
	uart_tx_init();
 8000e50:	f7ff fe7e 	bl	8000b50 <uart_tx_init>
	pwm_tim2_init();
 8000e54:	f000 f86c 	bl	8000f30 <pwm_tim2_init>
	tim3_1hz_init();
 8000e58:	f000 f968 	bl	800112c <tim3_1hz_init>

	while(1){
		move_arm(1.0, 1.0);
 8000e5c:	eef7 0a00 	vmov.f32	s1, #112	; 0x3f800000  1.0
 8000e60:	eeb7 0a00 	vmov.f32	s0, #112	; 0x3f800000  1.0
 8000e64:	f7ff fecc 	bl	8000c00 <move_arm>
 8000e68:	e7f8      	b.n	8000e5c <main+0x14>
	...

08000e6c <tim3_callback>:
	}

}

void tim3_callback(){
 8000e6c:	b580      	push	{r7, lr}
 8000e6e:	af00      	add	r7, sp, #0
    seconds++;
 8000e70:	4b07      	ldr	r3, [pc, #28]	; (8000e90 <tim3_callback+0x24>)
 8000e72:	681b      	ldr	r3, [r3, #0]
 8000e74:	3301      	adds	r3, #1
 8000e76:	4a06      	ldr	r2, [pc, #24]	; (8000e90 <tim3_callback+0x24>)
 8000e78:	6013      	str	r3, [r2, #0]
    if (seconds >= 60){
 8000e7a:	4b05      	ldr	r3, [pc, #20]	; (8000e90 <tim3_callback+0x24>)
 8000e7c:	681b      	ldr	r3, [r3, #0]
 8000e7e:	2b3b      	cmp	r3, #59	; 0x3b
 8000e80:	dd04      	ble.n	8000e8c <tim3_callback+0x20>
        //update clock
    	update_clock();
 8000e82:	f000 f97b 	bl	800117c <update_clock>
        seconds = 0;
 8000e86:	4b02      	ldr	r3, [pc, #8]	; (8000e90 <tim3_callback+0x24>)
 8000e88:	2200      	movs	r2, #0
 8000e8a:	601a      	str	r2, [r3, #0]
    }
}
 8000e8c:	bf00      	nop
 8000e8e:	bd80      	pop	{r7, pc}
 8000e90:	2000008c 	.word	0x2000008c

08000e94 <TIM3_IRQHandler>:

void TIM3_IRQHandler(){
 8000e94:	b580      	push	{r7, lr}
 8000e96:	af00      	add	r7, sp, #0
	//interrupt pending
	if (TIM3->SR & SR_UIF){
 8000e98:	4b07      	ldr	r3, [pc, #28]	; (8000eb8 <TIM3_IRQHandler+0x24>)
 8000e9a:	691b      	ldr	r3, [r3, #16]
 8000e9c:	f003 0301 	and.w	r3, r3, #1
 8000ea0:	2b00      	cmp	r3, #0
 8000ea2:	d007      	beq.n	8000eb4 <TIM3_IRQHandler+0x20>
		// reset interrupt flag
		TIM3->SR &= ~(SR_UIF);
 8000ea4:	4b04      	ldr	r3, [pc, #16]	; (8000eb8 <TIM3_IRQHandler+0x24>)
 8000ea6:	691b      	ldr	r3, [r3, #16]
 8000ea8:	4a03      	ldr	r2, [pc, #12]	; (8000eb8 <TIM3_IRQHandler+0x24>)
 8000eaa:	f023 0301 	bic.w	r3, r3, #1
 8000eae:	6113      	str	r3, [r2, #16]
		tim3_callback();
 8000eb0:	f7ff ffdc 	bl	8000e6c <tim3_callback>
	}
}
 8000eb4:	bf00      	nop
 8000eb6:	bd80      	pop	{r7, pc}
 8000eb8:	40000400 	.word	0x40000400

08000ebc <SystemInit>:

void SystemInit(void)
{
 8000ebc:	b480      	push	{r7}
 8000ebe:	af00      	add	r7, sp, #0
	/* Set floating point coprosessor access mode. */
	SCB->CPACR |= ((3UL << 10*2) | /* set CP10 Full Access */
 8000ec0:	4b06      	ldr	r3, [pc, #24]	; (8000edc <SystemInit+0x20>)
 8000ec2:	f8d3 3088 	ldr.w	r3, [r3, #136]	; 0x88
 8000ec6:	4a05      	ldr	r2, [pc, #20]	; (8000edc <SystemInit+0x20>)
 8000ec8:	f443 0370 	orr.w	r3, r3, #15728640	; 0xf00000
 8000ecc:	f8c2 3088 	str.w	r3, [r2, #136]	; 0x88
			(3UL << 11*2) ); /* set CP11 Full Access */
}
 8000ed0:	bf00      	nop
 8000ed2:	46bd      	mov	sp, r7
 8000ed4:	f85d 7b04 	ldr.w	r7, [sp], #4
 8000ed8:	4770      	bx	lr
 8000eda:	bf00      	nop
 8000edc:	e000ed00 	.word	0xe000ed00

08000ee0 <draw_D1>:
void draw_colon(){
    //colon to be centered on line
}


void draw_D1(int digit){
 8000ee0:	b480      	push	{r7}
 8000ee2:	b083      	sub	sp, #12
 8000ee4:	af00      	add	r7, sp, #0
 8000ee6:	6078      	str	r0, [r7, #4]
    // x offset = -4
}
 8000ee8:	bf00      	nop
 8000eea:	370c      	adds	r7, #12
 8000eec:	46bd      	mov	sp, r7
 8000eee:	f85d 7b04 	ldr.w	r7, [sp], #4
 8000ef2:	4770      	bx	lr

08000ef4 <draw_D2>:
void draw_D2(int digit){
 8000ef4:	b480      	push	{r7}
 8000ef6:	b083      	sub	sp, #12
 8000ef8:	af00      	add	r7, sp, #0
 8000efa:	6078      	str	r0, [r7, #4]
    // x offset = -1
}
 8000efc:	bf00      	nop
 8000efe:	370c      	adds	r7, #12
 8000f00:	46bd      	mov	sp, r7
 8000f02:	f85d 7b04 	ldr.w	r7, [sp], #4
 8000f06:	4770      	bx	lr

08000f08 <draw_D3>:
void draw_D3(int digit){
 8000f08:	b480      	push	{r7}
 8000f0a:	b083      	sub	sp, #12
 8000f0c:	af00      	add	r7, sp, #0
 8000f0e:	6078      	str	r0, [r7, #4]
    // x offset = 4
}
 8000f10:	bf00      	nop
 8000f12:	370c      	adds	r7, #12
 8000f14:	46bd      	mov	sp, r7
 8000f16:	f85d 7b04 	ldr.w	r7, [sp], #4
 8000f1a:	4770      	bx	lr

08000f1c <draw_D4>:
void draw_D4(int digit){
 8000f1c:	b480      	push	{r7}
 8000f1e:	b083      	sub	sp, #12
 8000f20:	af00      	add	r7, sp, #0
 8000f22:	6078      	str	r0, [r7, #4]
    // x offset = 7
}
 8000f24:	bf00      	nop
 8000f26:	370c      	adds	r7, #12
 8000f28:	46bd      	mov	sp, r7
 8000f2a:	f85d 7b04 	ldr.w	r7, [sp], #4
 8000f2e:	4770      	bx	lr

08000f30 <pwm_tim2_init>:
#define MAX_SERVO_VALUE			100.0
#define MIN_SERVO_VALUE			50.0
#define MAX_DEGREE_RANGE		180.0
#define MIN_DEGREE_RANGE		0.0

void pwm_tim2_init(void){
 8000f30:	b480      	push	{r7}
 8000f32:	af00      	add	r7, sp, #0


	//configure gpioa pins 1, 2, 3
	RCC->AHB1ENR |= GPIOAEN;
 8000f34:	4b3b      	ldr	r3, [pc, #236]	; (8001024 <pwm_tim2_init+0xf4>)
 8000f36:	6b1b      	ldr	r3, [r3, #48]	; 0x30
 8000f38:	4a3a      	ldr	r2, [pc, #232]	; (8001024 <pwm_tim2_init+0xf4>)
 8000f3a:	f043 0301 	orr.w	r3, r3, #1
 8000f3e:	6313      	str	r3, [r2, #48]	; 0x30
	RCC->APB1ENR |= TIM2EN;
 8000f40:	4b38      	ldr	r3, [pc, #224]	; (8001024 <pwm_tim2_init+0xf4>)
 8000f42:	6c1b      	ldr	r3, [r3, #64]	; 0x40
 8000f44:	4a37      	ldr	r2, [pc, #220]	; (8001024 <pwm_tim2_init+0xf4>)
 8000f46:	f043 0301 	orr.w	r3, r3, #1
 8000f4a:	6413      	str	r3, [r2, #64]	; 0x40

	/* CONFIG PORT A PINS 1-3*/
	GPIOA->MODER &= ~(0x000000FC);
 8000f4c:	4b36      	ldr	r3, [pc, #216]	; (8001028 <pwm_tim2_init+0xf8>)
 8000f4e:	681b      	ldr	r3, [r3, #0]
 8000f50:	4a35      	ldr	r2, [pc, #212]	; (8001028 <pwm_tim2_init+0xf8>)
 8000f52:	f023 03fc 	bic.w	r3, r3, #252	; 0xfc
 8000f56:	6013      	str	r3, [r2, #0]
	GPIOA->MODER |= (MODER_PIN_1_AF | MODER_PIN_2_AF | MODER_PIN_3_AF);
 8000f58:	4b33      	ldr	r3, [pc, #204]	; (8001028 <pwm_tim2_init+0xf8>)
 8000f5a:	681b      	ldr	r3, [r3, #0]
 8000f5c:	4a32      	ldr	r2, [pc, #200]	; (8001028 <pwm_tim2_init+0xf8>)
 8000f5e:	f043 03a8 	orr.w	r3, r3, #168	; 0xa8
 8000f62:	6013      	str	r3, [r2, #0]
	GPIOA->MODER &= ~(0x0000FFF0);
 8000f64:	4b30      	ldr	r3, [pc, #192]	; (8001028 <pwm_tim2_init+0xf8>)
 8000f66:	681b      	ldr	r3, [r3, #0]
 8000f68:	4a2f      	ldr	r2, [pc, #188]	; (8001028 <pwm_tim2_init+0xf8>)
 8000f6a:	f423 437f 	bic.w	r3, r3, #65280	; 0xff00
 8000f6e:	f023 03f0 	bic.w	r3, r3, #240	; 0xf0
 8000f72:	6013      	str	r3, [r2, #0]
	GPIOA->AFR[0] |= (AFR_PIN_3 | AFR_PIN_2 | AFR_PIN_1);
 8000f74:	4b2c      	ldr	r3, [pc, #176]	; (8001028 <pwm_tim2_init+0xf8>)
 8000f76:	6a1b      	ldr	r3, [r3, #32]
 8000f78:	4a2b      	ldr	r2, [pc, #172]	; (8001028 <pwm_tim2_init+0xf8>)
 8000f7a:	f443 5388 	orr.w	r3, r3, #4352	; 0x1100
 8000f7e:	f043 0310 	orr.w	r3, r3, #16
 8000f82:	6213      	str	r3, [r2, #32]
	GPIOA->OSPEEDR &= ~(PIN1_HIGHSPEED | PIN2_HIGHSPEED | PIN3_HIGHSPEED);
 8000f84:	4b28      	ldr	r3, [pc, #160]	; (8001028 <pwm_tim2_init+0xf8>)
 8000f86:	689b      	ldr	r3, [r3, #8]
 8000f88:	4a27      	ldr	r2, [pc, #156]	; (8001028 <pwm_tim2_init+0xf8>)
 8000f8a:	f023 03fc 	bic.w	r3, r3, #252	; 0xfc
 8000f8e:	6093      	str	r3, [r2, #8]
	GPIOA->OSPEEDR |= (PIN3_HIGHSPEED | PIN2_HIGHSPEED | PIN3_HIGHSPEED);
 8000f90:	4b25      	ldr	r3, [pc, #148]	; (8001028 <pwm_tim2_init+0xf8>)
 8000f92:	689b      	ldr	r3, [r3, #8]
 8000f94:	4a24      	ldr	r2, [pc, #144]	; (8001028 <pwm_tim2_init+0xf8>)
 8000f96:	f043 03f0 	orr.w	r3, r3, #240	; 0xf0
 8000f9a:	6093      	str	r3, [r2, #8]


	// systemclock at 16MHz
	/* Set for 20 ms */
	TIM2->PSC = PSC_VALUE;
 8000f9c:	f04f 4380 	mov.w	r3, #1073741824	; 0x40000000
 8000fa0:	f240 123f 	movw	r2, #319	; 0x13f
 8000fa4:	629a      	str	r2, [r3, #40]	; 0x28
	TIM2->ARR = ARR_VALUE;
 8000fa6:	f04f 4380 	mov.w	r3, #1073741824	; 0x40000000
 8000faa:	f240 32e7 	movw	r2, #999	; 0x3e7
 8000fae:	62da      	str	r2, [r3, #44]	; 0x2c
	TIM2->CNT = 0; // restart counter
 8000fb0:	f04f 4380 	mov.w	r3, #1073741824	; 0x40000000
 8000fb4:	2200      	movs	r2, #0
 8000fb6:	625a      	str	r2, [r3, #36]	; 0x24


	//enable pwm mode for ch 2, 3, & 4
	TIM2->CCMR1 |= CH2_PWM_MODE_ONE;
 8000fb8:	f04f 4380 	mov.w	r3, #1073741824	; 0x40000000
 8000fbc:	699b      	ldr	r3, [r3, #24]
 8000fbe:	f04f 4280 	mov.w	r2, #1073741824	; 0x40000000
 8000fc2:	f443 43c0 	orr.w	r3, r3, #24576	; 0x6000
 8000fc6:	6193      	str	r3, [r2, #24]
	TIM2->CCMR2 |= (CH3_PWM_MODE_ONE | CH4_PWM_MODE_ONE);
 8000fc8:	f04f 4380 	mov.w	r3, #1073741824	; 0x40000000
 8000fcc:	69db      	ldr	r3, [r3, #28]
 8000fce:	f04f 4280 	mov.w	r2, #1073741824	; 0x40000000
 8000fd2:	f443 43c0 	orr.w	r3, r3, #24576	; 0x6000
 8000fd6:	f043 0360 	orr.w	r3, r3, #96	; 0x60
 8000fda:	61d3      	str	r3, [r2, #28]

	// init duty cycle
	TIM2->CCR2 = 100;
 8000fdc:	f04f 4380 	mov.w	r3, #1073741824	; 0x40000000
 8000fe0:	2264      	movs	r2, #100	; 0x64
 8000fe2:	639a      	str	r2, [r3, #56]	; 0x38
	TIM2->CCR3 = 100;
 8000fe4:	f04f 4380 	mov.w	r3, #1073741824	; 0x40000000
 8000fe8:	2264      	movs	r2, #100	; 0x64
 8000fea:	63da      	str	r2, [r3, #60]	; 0x3c
	TIM2->CCR4 = 100;
 8000fec:	f04f 4380 	mov.w	r3, #1073741824	; 0x40000000
 8000ff0:	2264      	movs	r2, #100	; 0x64
 8000ff2:	641a      	str	r2, [r3, #64]	; 0x40

	TIM2->CCER |= (CCER_CC4E | CCER_CC3E | CCER_CC2E); //enable capture/compare of tim2ch2
 8000ff4:	f04f 4380 	mov.w	r3, #1073741824	; 0x40000000
 8000ff8:	6a1b      	ldr	r3, [r3, #32]
 8000ffa:	f04f 4280 	mov.w	r2, #1073741824	; 0x40000000
 8000ffe:	f443 5388 	orr.w	r3, r3, #4352	; 0x1100
 8001002:	f043 0310 	orr.w	r3, r3, #16
 8001006:	6213      	str	r3, [r2, #32]
	TIM2->CR1 |= CR1_CEN;
 8001008:	f04f 4380 	mov.w	r3, #1073741824	; 0x40000000
 800100c:	681b      	ldr	r3, [r3, #0]
 800100e:	f04f 4280 	mov.w	r2, #1073741824	; 0x40000000
 8001012:	f043 0301 	orr.w	r3, r3, #1
 8001016:	6013      	str	r3, [r2, #0]

}
 8001018:	bf00      	nop
 800101a:	46bd      	mov	sp, r7
 800101c:	f85d 7b04 	ldr.w	r7, [sp], #4
 8001020:	4770      	bx	lr
 8001022:	bf00      	nop
 8001024:	40023800 	.word	0x40023800
 8001028:	40020000 	.word	0x40020000

0800102c <map_to_servo>:

float map_to_servo(float value){
 800102c:	b5b0      	push	{r4, r5, r7, lr}
 800102e:	b084      	sub	sp, #16
 8001030:	af00      	add	r7, sp, #0
 8001032:	ed87 0a01 	vstr	s0, [r7, #4]
	float slope = 1.0 * (MAX_SERVO_VALUE - MIN_SERVO_VALUE) / (MAX_DEGREE_RANGE - MIN_DEGREE_RANGE);
 8001036:	4b13      	ldr	r3, [pc, #76]	; (8001084 <map_to_servo+0x58>)
 8001038:	60fb      	str	r3, [r7, #12]
	return (float)(MIN_SERVO_VALUE + slope * (value - MIN_DEGREE_RANGE));
 800103a:	68f8      	ldr	r0, [r7, #12]
 800103c:	f7ff fa30 	bl	80004a0 <__aeabi_f2d>
 8001040:	4604      	mov	r4, r0
 8001042:	460d      	mov	r5, r1
 8001044:	6878      	ldr	r0, [r7, #4]
 8001046:	f7ff fa2b 	bl	80004a0 <__aeabi_f2d>
 800104a:	4602      	mov	r2, r0
 800104c:	460b      	mov	r3, r1
 800104e:	4620      	mov	r0, r4
 8001050:	4629      	mov	r1, r5
 8001052:	f7ff fa7d 	bl	8000550 <__aeabi_dmul>
 8001056:	4602      	mov	r2, r0
 8001058:	460b      	mov	r3, r1
 800105a:	4610      	mov	r0, r2
 800105c:	4619      	mov	r1, r3
 800105e:	f04f 0200 	mov.w	r2, #0
 8001062:	4b09      	ldr	r3, [pc, #36]	; (8001088 <map_to_servo+0x5c>)
 8001064:	f7ff f8be 	bl	80001e4 <__adddf3>
 8001068:	4602      	mov	r2, r0
 800106a:	460b      	mov	r3, r1
 800106c:	4610      	mov	r0, r2
 800106e:	4619      	mov	r1, r3
 8001070:	f7ff fd1e 	bl	8000ab0 <__aeabi_d2f>
 8001074:	4603      	mov	r3, r0
 8001076:	ee07 3a90 	vmov	s15, r3

}
 800107a:	eeb0 0a67 	vmov.f32	s0, s15
 800107e:	3710      	adds	r7, #16
 8001080:	46bd      	mov	sp, r7
 8001082:	bdb0      	pop	{r4, r5, r7, pc}
 8001084:	3e8e38e4 	.word	0x3e8e38e4
 8001088:	40490000 	.word	0x40490000

0800108c <move_servo>:
void move_servo(float base_degrees, float arm_degrees, float x_value){
 800108c:	b480      	push	{r7}
 800108e:	b085      	sub	sp, #20
 8001090:	af00      	add	r7, sp, #0
 8001092:	ed87 0a03 	vstr	s0, [r7, #12]
 8001096:	edc7 0a02 	vstr	s1, [r7, #8]
 800109a:	ed87 1a01 	vstr	s2, [r7, #4]

	TIM2->CCR2 = base_degrees;
 800109e:	f04f 4380 	mov.w	r3, #1073741824	; 0x40000000
 80010a2:	edd7 7a03 	vldr	s15, [r7, #12]
 80010a6:	eefc 7ae7 	vcvt.u32.f32	s15, s15
 80010aa:	ee17 2a90 	vmov	r2, s15
 80010ae:	639a      	str	r2, [r3, #56]	; 0x38
	
	if (x_value >= 0){
 80010b0:	edd7 7a01 	vldr	s15, [r7, #4]
 80010b4:	eef5 7ac0 	vcmpe.f32	s15, #0.0
 80010b8:	eef1 fa10 	vmrs	APSR_nzcv, fpscr
 80010bc:	db09      	blt.n	80010d2 <move_servo+0x46>
		//use left servo
		TIM2->CCR3 = arm_degrees;
 80010be:	f04f 4380 	mov.w	r3, #1073741824	; 0x40000000
 80010c2:	edd7 7a02 	vldr	s15, [r7, #8]
 80010c6:	eefc 7ae7 	vcvt.u32.f32	s15, s15
 80010ca:	ee17 2a90 	vmov	r2, s15
 80010ce:	63da      	str	r2, [r3, #60]	; 0x3c
	} else {
		//use right servo
		TIM2->CCR4 = arm_degrees;
	}

}
 80010d0:	e008      	b.n	80010e4 <move_servo+0x58>
		TIM2->CCR4 = arm_degrees;
 80010d2:	f04f 4380 	mov.w	r3, #1073741824	; 0x40000000
 80010d6:	edd7 7a02 	vldr	s15, [r7, #8]
 80010da:	eefc 7ae7 	vcvt.u32.f32	s15, s15
 80010de:	ee17 2a90 	vmov	r2, s15
 80010e2:	641a      	str	r2, [r3, #64]	; 0x40
}
 80010e4:	bf00      	nop
 80010e6:	3714      	adds	r7, #20
 80010e8:	46bd      	mov	sp, r7
 80010ea:	f85d 7b04 	ldr.w	r7, [sp], #4
 80010ee:	4770      	bx	lr

080010f0 <__NVIC_EnableIRQ>:
  \details Enables a device specific interrupt in the NVIC interrupt controller.
  \param [in]      IRQn  Device specific interrupt number.
  \note    IRQn must not be negative.
 */
__STATIC_INLINE void __NVIC_EnableIRQ(IRQn_Type IRQn)
{
 80010f0:	b480      	push	{r7}
 80010f2:	b083      	sub	sp, #12
 80010f4:	af00      	add	r7, sp, #0
 80010f6:	4603      	mov	r3, r0
 80010f8:	71fb      	strb	r3, [r7, #7]
  if ((int32_t)(IRQn) >= 0)
 80010fa:	f997 3007 	ldrsb.w	r3, [r7, #7]
 80010fe:	2b00      	cmp	r3, #0
 8001100:	db0b      	blt.n	800111a <__NVIC_EnableIRQ+0x2a>
  {
    NVIC->ISER[(((uint32_t)IRQn) >> 5UL)] = (uint32_t)(1UL << (((uint32_t)IRQn) & 0x1FUL));
 8001102:	79fb      	ldrb	r3, [r7, #7]
 8001104:	f003 021f 	and.w	r2, r3, #31
 8001108:	4907      	ldr	r1, [pc, #28]	; (8001128 <__NVIC_EnableIRQ+0x38>)
 800110a:	f997 3007 	ldrsb.w	r3, [r7, #7]
 800110e:	095b      	lsrs	r3, r3, #5
 8001110:	2001      	movs	r0, #1
 8001112:	fa00 f202 	lsl.w	r2, r0, r2
 8001116:	f841 2023 	str.w	r2, [r1, r3, lsl #2]
  }
}
 800111a:	bf00      	nop
 800111c:	370c      	adds	r7, #12
 800111e:	46bd      	mov	sp, r7
 8001120:	f85d 7b04 	ldr.w	r7, [sp], #4
 8001124:	4770      	bx	lr
 8001126:	bf00      	nop
 8001128:	e000e100 	.word	0xe000e100

0800112c <tim3_1hz_init>:
/*TIM3 DEFINITIONS*/
#define TIM3EN				(1U<<1)
#define DIER_UIE			(1U<<0)
#define CR1_CEN				(1U<<0)

void tim3_1hz_init(void){
 800112c:	b580      	push	{r7, lr}
 800112e:	af00      	add	r7, sp, #0
	/* Configure TIM3 interrupt at 1hz */

	/* Enable clock for timer 3 & DMA1*/
	RCC->APB1ENR |= TIM3EN;
 8001130:	4b10      	ldr	r3, [pc, #64]	; (8001174 <tim3_1hz_init+0x48>)
 8001132:	6c1b      	ldr	r3, [r3, #64]	; 0x40
 8001134:	4a0f      	ldr	r2, [pc, #60]	; (8001174 <tim3_1hz_init+0x48>)
 8001136:	f043 0302 	orr.w	r3, r3, #2
 800113a:	6413      	str	r3, [r2, #64]	; 0x40

	/*Timer configured to 1Hz*/
	TIM3->PSC = 1600 - 1;
 800113c:	4b0e      	ldr	r3, [pc, #56]	; (8001178 <tim3_1hz_init+0x4c>)
 800113e:	f240 623f 	movw	r2, #1599	; 0x63f
 8001142:	629a      	str	r2, [r3, #40]	; 0x28
	TIM3->ARR = 10000 - 1;
 8001144:	4b0c      	ldr	r3, [pc, #48]	; (8001178 <tim3_1hz_init+0x4c>)
 8001146:	f242 720f 	movw	r2, #9999	; 0x270f
 800114a:	62da      	str	r2, [r3, #44]	; 0x2c
	TIM3->CNT = 0; //reset counter
 800114c:	4b0a      	ldr	r3, [pc, #40]	; (8001178 <tim3_1hz_init+0x4c>)
 800114e:	2200      	movs	r2, #0
 8001150:	625a      	str	r2, [r3, #36]	; 0x24

	/* Enable interrupt */
	TIM3->DIER |= DIER_UIE;
 8001152:	4b09      	ldr	r3, [pc, #36]	; (8001178 <tim3_1hz_init+0x4c>)
 8001154:	68db      	ldr	r3, [r3, #12]
 8001156:	4a08      	ldr	r2, [pc, #32]	; (8001178 <tim3_1hz_init+0x4c>)
 8001158:	f043 0301 	orr.w	r3, r3, #1
 800115c:	60d3      	str	r3, [r2, #12]

	/* Enable in NVIC */
	NVIC_EnableIRQ(TIM3_IRQn);
 800115e:	201d      	movs	r0, #29
 8001160:	f7ff ffc6 	bl	80010f0 <__NVIC_EnableIRQ>

	/* Start Clock */
	TIM3->CR1 |= CR1_CEN;
 8001164:	4b04      	ldr	r3, [pc, #16]	; (8001178 <tim3_1hz_init+0x4c>)
 8001166:	681b      	ldr	r3, [r3, #0]
 8001168:	4a03      	ldr	r2, [pc, #12]	; (8001178 <tim3_1hz_init+0x4c>)
 800116a:	f043 0301 	orr.w	r3, r3, #1
 800116e:	6013      	str	r3, [r2, #0]
}
 8001170:	bf00      	nop
 8001172:	bd80      	pop	{r7, pc}
 8001174:	40023800 	.word	0x40023800
 8001178:	40000400 	.word	0x40000400

0800117c <update_clock>:

/* Global Variables */
volatile int min = 0;
volatile int hr = 0;

void update_clock(){
 800117c:	b580      	push	{r7, lr}
 800117e:	af00      	add	r7, sp, #0
    //60 seconds passed
    min++;
 8001180:	4b10      	ldr	r3, [pc, #64]	; (80011c4 <update_clock+0x48>)
 8001182:	681b      	ldr	r3, [r3, #0]
 8001184:	3301      	adds	r3, #1
 8001186:	4a0f      	ldr	r2, [pc, #60]	; (80011c4 <update_clock+0x48>)
 8001188:	6013      	str	r3, [r2, #0]
    if (min >= 60){
 800118a:	4b0e      	ldr	r3, [pc, #56]	; (80011c4 <update_clock+0x48>)
 800118c:	681b      	ldr	r3, [r3, #0]
 800118e:	2b3b      	cmp	r3, #59	; 0x3b
 8001190:	dd07      	ble.n	80011a2 <update_clock+0x26>
        min = 0;
 8001192:	4b0c      	ldr	r3, [pc, #48]	; (80011c4 <update_clock+0x48>)
 8001194:	2200      	movs	r2, #0
 8001196:	601a      	str	r2, [r3, #0]
        hr++;
 8001198:	4b0b      	ldr	r3, [pc, #44]	; (80011c8 <update_clock+0x4c>)
 800119a:	681b      	ldr	r3, [r3, #0]
 800119c:	3301      	adds	r3, #1
 800119e:	4a0a      	ldr	r2, [pc, #40]	; (80011c8 <update_clock+0x4c>)
 80011a0:	6013      	str	r3, [r2, #0]
    }
    if (hr >= 24){
 80011a2:	4b09      	ldr	r3, [pc, #36]	; (80011c8 <update_clock+0x4c>)
 80011a4:	681b      	ldr	r3, [r3, #0]
 80011a6:	2b17      	cmp	r3, #23
 80011a8:	dd02      	ble.n	80011b0 <update_clock+0x34>
        hr = 0;
 80011aa:	4b07      	ldr	r3, [pc, #28]	; (80011c8 <update_clock+0x4c>)
 80011ac:	2200      	movs	r2, #0
 80011ae:	601a      	str	r2, [r3, #0]
    }
    update_time(hr, min);
 80011b0:	4b05      	ldr	r3, [pc, #20]	; (80011c8 <update_clock+0x4c>)
 80011b2:	681b      	ldr	r3, [r3, #0]
 80011b4:	4a03      	ldr	r2, [pc, #12]	; (80011c4 <update_clock+0x48>)
 80011b6:	6812      	ldr	r2, [r2, #0]
 80011b8:	4611      	mov	r1, r2
 80011ba:	4618      	mov	r0, r3
 80011bc:	f000 f806 	bl	80011cc <update_time>
}
 80011c0:	bf00      	nop
 80011c2:	bd80      	pop	{r7, pc}
 80011c4:	20000090 	.word	0x20000090
 80011c8:	20000094 	.word	0x20000094

080011cc <update_time>:

void update_time(int h, int m){
 80011cc:	b580      	push	{r7, lr}
 80011ce:	b082      	sub	sp, #8
 80011d0:	af00      	add	r7, sp, #0
 80011d2:	6078      	str	r0, [r7, #4]
 80011d4:	6039      	str	r1, [r7, #0]
    //call appropriate functions to 
    //draw time
    if (h >= 10){
 80011d6:	687b      	ldr	r3, [r7, #4]
 80011d8:	2b09      	cmp	r3, #9
 80011da:	dd19      	ble.n	8001210 <update_time+0x44>
        draw_D1((int)h / 10);
 80011dc:	687b      	ldr	r3, [r7, #4]
 80011de:	4a23      	ldr	r2, [pc, #140]	; (800126c <update_time+0xa0>)
 80011e0:	fb82 1203 	smull	r1, r2, r2, r3
 80011e4:	1092      	asrs	r2, r2, #2
 80011e6:	17db      	asrs	r3, r3, #31
 80011e8:	1ad3      	subs	r3, r2, r3
 80011ea:	4618      	mov	r0, r3
 80011ec:	f7ff fe78 	bl	8000ee0 <draw_D1>
        draw_D2((int)h % 10);
 80011f0:	687a      	ldr	r2, [r7, #4]
 80011f2:	4b1e      	ldr	r3, [pc, #120]	; (800126c <update_time+0xa0>)
 80011f4:	fb83 1302 	smull	r1, r3, r3, r2
 80011f8:	1099      	asrs	r1, r3, #2
 80011fa:	17d3      	asrs	r3, r2, #31
 80011fc:	1ac9      	subs	r1, r1, r3
 80011fe:	460b      	mov	r3, r1
 8001200:	009b      	lsls	r3, r3, #2
 8001202:	440b      	add	r3, r1
 8001204:	005b      	lsls	r3, r3, #1
 8001206:	1ad1      	subs	r1, r2, r3
 8001208:	4608      	mov	r0, r1
 800120a:	f7ff fe73 	bl	8000ef4 <draw_D2>
 800120e:	e005      	b.n	800121c <update_time+0x50>
    }
    else{
        draw_D1(0);
 8001210:	2000      	movs	r0, #0
 8001212:	f7ff fe65 	bl	8000ee0 <draw_D1>
        draw_D2(h);
 8001216:	6878      	ldr	r0, [r7, #4]
 8001218:	f7ff fe6c 	bl	8000ef4 <draw_D2>
    }
    if (m >= 10){
 800121c:	683b      	ldr	r3, [r7, #0]
 800121e:	2b09      	cmp	r3, #9
 8001220:	dd19      	ble.n	8001256 <update_time+0x8a>
        draw_D3((int)m / 10);
 8001222:	683b      	ldr	r3, [r7, #0]
 8001224:	4a11      	ldr	r2, [pc, #68]	; (800126c <update_time+0xa0>)
 8001226:	fb82 1203 	smull	r1, r2, r2, r3
 800122a:	1092      	asrs	r2, r2, #2
 800122c:	17db      	asrs	r3, r3, #31
 800122e:	1ad3      	subs	r3, r2, r3
 8001230:	4618      	mov	r0, r3
 8001232:	f7ff fe69 	bl	8000f08 <draw_D3>
        draw_D4((int)m % 10);
 8001236:	683a      	ldr	r2, [r7, #0]
 8001238:	4b0c      	ldr	r3, [pc, #48]	; (800126c <update_time+0xa0>)
 800123a:	fb83 1302 	smull	r1, r3, r3, r2
 800123e:	1099      	asrs	r1, r3, #2
 8001240:	17d3      	asrs	r3, r2, #31
 8001242:	1ac9      	subs	r1, r1, r3
 8001244:	460b      	mov	r3, r1
 8001246:	009b      	lsls	r3, r3, #2
 8001248:	440b      	add	r3, r1
 800124a:	005b      	lsls	r3, r3, #1
 800124c:	1ad1      	subs	r1, r2, r3
 800124e:	4608      	mov	r0, r1
 8001250:	f7ff fe64 	bl	8000f1c <draw_D4>
    }
    else{
        draw_D3(0);
        draw_D4(m);
    }
}
 8001254:	e005      	b.n	8001262 <update_time+0x96>
        draw_D3(0);
 8001256:	2000      	movs	r0, #0
 8001258:	f7ff fe56 	bl	8000f08 <draw_D3>
        draw_D4(m);
 800125c:	6838      	ldr	r0, [r7, #0]
 800125e:	f7ff fe5d 	bl	8000f1c <draw_D4>
}
 8001262:	bf00      	nop
 8001264:	3708      	adds	r7, #8
 8001266:	46bd      	mov	sp, r7
 8001268:	bd80      	pop	{r7, pc}
 800126a:	bf00      	nop
 800126c:	66666667 	.word	0x66666667

08001270 <Reset_Handler>:

  .section .text.Reset_Handler
  .weak Reset_Handler
  .type Reset_Handler, %function
Reset_Handler:
  ldr   r0, =_estack
 8001270:	480d      	ldr	r0, [pc, #52]	; (80012a8 <LoopForever+0x2>)
  mov   sp, r0          /* set stack pointer */
 8001272:	4685      	mov	sp, r0
/* Call the clock system initialization function.*/

  bl  SystemInit
 8001274:	f7ff fe22 	bl	8000ebc <SystemInit>

/* Copy the data segment initializers from flash to SRAM */
  ldr r0, =_sdata
 8001278:	480c      	ldr	r0, [pc, #48]	; (80012ac <LoopForever+0x6>)
  ldr r1, =_edata
 800127a:	490d      	ldr	r1, [pc, #52]	; (80012b0 <LoopForever+0xa>)
  ldr r2, =_sidata
 800127c:	4a0d      	ldr	r2, [pc, #52]	; (80012b4 <LoopForever+0xe>)
  movs r3, #0
 800127e:	2300      	movs	r3, #0
  b LoopCopyDataInit
 8001280:	e002      	b.n	8001288 <LoopCopyDataInit>

08001282 <CopyDataInit>:

CopyDataInit:
  ldr r4, [r2, r3]
 8001282:	58d4      	ldr	r4, [r2, r3]
  str r4, [r0, r3]
 8001284:	50c4      	str	r4, [r0, r3]
  adds r3, r3, #4
 8001286:	3304      	adds	r3, #4

08001288 <LoopCopyDataInit>:

LoopCopyDataInit:
  adds r4, r0, r3
 8001288:	18c4      	adds	r4, r0, r3
  cmp r4, r1
 800128a:	428c      	cmp	r4, r1
  bcc CopyDataInit
 800128c:	d3f9      	bcc.n	8001282 <CopyDataInit>

/* Zero fill the bss segment. */
  ldr r2, =_sbss
 800128e:	4a0a      	ldr	r2, [pc, #40]	; (80012b8 <LoopForever+0x12>)
  ldr r4, =_ebss
 8001290:	4c0a      	ldr	r4, [pc, #40]	; (80012bc <LoopForever+0x16>)
  movs r3, #0
 8001292:	2300      	movs	r3, #0
  b LoopFillZerobss
 8001294:	e001      	b.n	800129a <LoopFillZerobss>

08001296 <FillZerobss>:

FillZerobss:
  str  r3, [r2]
 8001296:	6013      	str	r3, [r2, #0]
  adds r2, r2, #4
 8001298:	3204      	adds	r2, #4

0800129a <LoopFillZerobss>:

LoopFillZerobss:
  cmp r2, r4
 800129a:	42a2      	cmp	r2, r4
  bcc FillZerobss
 800129c:	d3fb      	bcc.n	8001296 <FillZerobss>

/* Call static constructors */
  bl __libc_init_array
 800129e:	f000 f817 	bl	80012d0 <__libc_init_array>
/* Call the application's entry point.*/
  bl main
 80012a2:	f7ff fdd1 	bl	8000e48 <main>

080012a6 <LoopForever>:

LoopForever:
  b LoopForever
 80012a6:	e7fe      	b.n	80012a6 <LoopForever>
  ldr   r0, =_estack
 80012a8:	20020000 	.word	0x20020000
  ldr r0, =_sdata
 80012ac:	20000000 	.word	0x20000000
  ldr r1, =_edata
 80012b0:	20000060 	.word	0x20000060
  ldr r2, =_sidata
 80012b4:	08002f88 	.word	0x08002f88
  ldr r2, =_sbss
 80012b8:	20000060 	.word	0x20000060
  ldr r4, =_ebss
 80012bc:	200001d0 	.word	0x200001d0

080012c0 <ADC_IRQHandler>:
 * @retval : None
*/
  .section .text.Default_Handler,"ax",%progbits
Default_Handler:
Infinite_Loop:
  b Infinite_Loop
 80012c0:	e7fe      	b.n	80012c0 <ADC_IRQHandler>
	...

080012c4 <__errno>:
 80012c4:	4b01      	ldr	r3, [pc, #4]	; (80012cc <__errno+0x8>)
 80012c6:	6818      	ldr	r0, [r3, #0]
 80012c8:	4770      	bx	lr
 80012ca:	bf00      	nop
 80012cc:	2000004c 	.word	0x2000004c

080012d0 <__libc_init_array>:
 80012d0:	b570      	push	{r4, r5, r6, lr}
 80012d2:	4d0d      	ldr	r5, [pc, #52]	; (8001308 <__libc_init_array+0x38>)
 80012d4:	4c0d      	ldr	r4, [pc, #52]	; (800130c <__libc_init_array+0x3c>)
 80012d6:	1b64      	subs	r4, r4, r5
 80012d8:	10a4      	asrs	r4, r4, #2
 80012da:	2600      	movs	r6, #0
 80012dc:	42a6      	cmp	r6, r4
 80012de:	d109      	bne.n	80012f4 <__libc_init_array+0x24>
 80012e0:	4d0b      	ldr	r5, [pc, #44]	; (8001310 <__libc_init_array+0x40>)
 80012e2:	4c0c      	ldr	r4, [pc, #48]	; (8001314 <__libc_init_array+0x44>)
 80012e4:	f001 fe02 	bl	8002eec <_init>
 80012e8:	1b64      	subs	r4, r4, r5
 80012ea:	10a4      	asrs	r4, r4, #2
 80012ec:	2600      	movs	r6, #0
 80012ee:	42a6      	cmp	r6, r4
 80012f0:	d105      	bne.n	80012fe <__libc_init_array+0x2e>
 80012f2:	bd70      	pop	{r4, r5, r6, pc}
 80012f4:	f855 3b04 	ldr.w	r3, [r5], #4
 80012f8:	4798      	blx	r3
 80012fa:	3601      	adds	r6, #1
 80012fc:	e7ee      	b.n	80012dc <__libc_init_array+0xc>
 80012fe:	f855 3b04 	ldr.w	r3, [r5], #4
 8001302:	4798      	blx	r3
 8001304:	3601      	adds	r6, #1
 8001306:	e7f2      	b.n	80012ee <__libc_init_array+0x1e>
 8001308:	08002f80 	.word	0x08002f80
 800130c:	08002f80 	.word	0x08002f80
 8001310:	08002f80 	.word	0x08002f80
 8001314:	08002f84 	.word	0x08002f84

08001318 <acos>:
 8001318:	b538      	push	{r3, r4, r5, lr}
 800131a:	ed2d 8b02 	vpush	{d8}
 800131e:	ec55 4b10 	vmov	r4, r5, d0
 8001322:	f000 f861 	bl	80013e8 <__ieee754_acos>
 8001326:	4622      	mov	r2, r4
 8001328:	462b      	mov	r3, r5
 800132a:	4620      	mov	r0, r4
 800132c:	4629      	mov	r1, r5
 800132e:	eeb0 8a40 	vmov.f32	s16, s0
 8001332:	eef0 8a60 	vmov.f32	s17, s1
 8001336:	f7ff fba5 	bl	8000a84 <__aeabi_dcmpun>
 800133a:	b9a8      	cbnz	r0, 8001368 <acos+0x50>
 800133c:	ec45 4b10 	vmov	d0, r4, r5
 8001340:	f000 ff02 	bl	8002148 <fabs>
 8001344:	4b0c      	ldr	r3, [pc, #48]	; (8001378 <acos+0x60>)
 8001346:	ec51 0b10 	vmov	r0, r1, d0
 800134a:	2200      	movs	r2, #0
 800134c:	f7ff fb90 	bl	8000a70 <__aeabi_dcmpgt>
 8001350:	b150      	cbz	r0, 8001368 <acos+0x50>
 8001352:	f7ff ffb7 	bl	80012c4 <__errno>
 8001356:	ecbd 8b02 	vpop	{d8}
 800135a:	2321      	movs	r3, #33	; 0x21
 800135c:	6003      	str	r3, [r0, #0]
 800135e:	e8bd 4038 	ldmia.w	sp!, {r3, r4, r5, lr}
 8001362:	4806      	ldr	r0, [pc, #24]	; (800137c <acos+0x64>)
 8001364:	f000 bfe0 	b.w	8002328 <nan>
 8001368:	eeb0 0a48 	vmov.f32	s0, s16
 800136c:	eef0 0a68 	vmov.f32	s1, s17
 8001370:	ecbd 8b02 	vpop	{d8}
 8001374:	bd38      	pop	{r3, r4, r5, pc}
 8001376:	bf00      	nop
 8001378:	3ff00000 	.word	0x3ff00000
 800137c:	08002f08 	.word	0x08002f08

08001380 <asin>:
 8001380:	b538      	push	{r3, r4, r5, lr}
 8001382:	ed2d 8b02 	vpush	{d8}
 8001386:	ec55 4b10 	vmov	r4, r5, d0
 800138a:	f000 fa8d 	bl	80018a8 <__ieee754_asin>
 800138e:	4622      	mov	r2, r4
 8001390:	462b      	mov	r3, r5
 8001392:	4620      	mov	r0, r4
 8001394:	4629      	mov	r1, r5
 8001396:	eeb0 8a40 	vmov.f32	s16, s0
 800139a:	eef0 8a60 	vmov.f32	s17, s1
 800139e:	f7ff fb71 	bl	8000a84 <__aeabi_dcmpun>
 80013a2:	b9a8      	cbnz	r0, 80013d0 <asin+0x50>
 80013a4:	ec45 4b10 	vmov	d0, r4, r5
 80013a8:	f000 fece 	bl	8002148 <fabs>
 80013ac:	4b0c      	ldr	r3, [pc, #48]	; (80013e0 <asin+0x60>)
 80013ae:	ec51 0b10 	vmov	r0, r1, d0
 80013b2:	2200      	movs	r2, #0
 80013b4:	f7ff fb5c 	bl	8000a70 <__aeabi_dcmpgt>
 80013b8:	b150      	cbz	r0, 80013d0 <asin+0x50>
 80013ba:	f7ff ff83 	bl	80012c4 <__errno>
 80013be:	ecbd 8b02 	vpop	{d8}
 80013c2:	2321      	movs	r3, #33	; 0x21
 80013c4:	6003      	str	r3, [r0, #0]
 80013c6:	e8bd 4038 	ldmia.w	sp!, {r3, r4, r5, lr}
 80013ca:	4806      	ldr	r0, [pc, #24]	; (80013e4 <asin+0x64>)
 80013cc:	f000 bfac 	b.w	8002328 <nan>
 80013d0:	eeb0 0a48 	vmov.f32	s0, s16
 80013d4:	eef0 0a68 	vmov.f32	s1, s17
 80013d8:	ecbd 8b02 	vpop	{d8}
 80013dc:	bd38      	pop	{r3, r4, r5, pc}
 80013de:	bf00      	nop
 80013e0:	3ff00000 	.word	0x3ff00000
 80013e4:	08002f08 	.word	0x08002f08

080013e8 <__ieee754_acos>:
 80013e8:	e92d 4ff8 	stmdb	sp!, {r3, r4, r5, r6, r7, r8, r9, sl, fp, lr}
 80013ec:	ec55 4b10 	vmov	r4, r5, d0
 80013f0:	49b7      	ldr	r1, [pc, #732]	; (80016d0 <__ieee754_acos+0x2e8>)
 80013f2:	f025 4300 	bic.w	r3, r5, #2147483648	; 0x80000000
 80013f6:	428b      	cmp	r3, r1
 80013f8:	dd1b      	ble.n	8001432 <__ieee754_acos+0x4a>
 80013fa:	f103 4340 	add.w	r3, r3, #3221225472	; 0xc0000000
 80013fe:	f503 1380 	add.w	r3, r3, #1048576	; 0x100000
 8001402:	4323      	orrs	r3, r4
 8001404:	d106      	bne.n	8001414 <__ieee754_acos+0x2c>
 8001406:	2d00      	cmp	r5, #0
 8001408:	f300 8211 	bgt.w	800182e <__ieee754_acos+0x446>
 800140c:	ed9f 0b96 	vldr	d0, [pc, #600]	; 8001668 <__ieee754_acos+0x280>
 8001410:	e8bd 8ff8 	ldmia.w	sp!, {r3, r4, r5, r6, r7, r8, r9, sl, fp, pc}
 8001414:	ee10 2a10 	vmov	r2, s0
 8001418:	462b      	mov	r3, r5
 800141a:	ee10 0a10 	vmov	r0, s0
 800141e:	4629      	mov	r1, r5
 8001420:	f7fe fede 	bl	80001e0 <__aeabi_dsub>
 8001424:	4602      	mov	r2, r0
 8001426:	460b      	mov	r3, r1
 8001428:	f7ff f9bc 	bl	80007a4 <__aeabi_ddiv>
 800142c:	ec41 0b10 	vmov	d0, r0, r1
 8001430:	e7ee      	b.n	8001410 <__ieee754_acos+0x28>
 8001432:	49a8      	ldr	r1, [pc, #672]	; (80016d4 <__ieee754_acos+0x2ec>)
 8001434:	428b      	cmp	r3, r1
 8001436:	f300 8087 	bgt.w	8001548 <__ieee754_acos+0x160>
 800143a:	4aa7      	ldr	r2, [pc, #668]	; (80016d8 <__ieee754_acos+0x2f0>)
 800143c:	4293      	cmp	r3, r2
 800143e:	f340 81f9 	ble.w	8001834 <__ieee754_acos+0x44c>
 8001442:	ee10 2a10 	vmov	r2, s0
 8001446:	ee10 0a10 	vmov	r0, s0
 800144a:	462b      	mov	r3, r5
 800144c:	4629      	mov	r1, r5
 800144e:	f7ff f87f 	bl	8000550 <__aeabi_dmul>
 8001452:	a387      	add	r3, pc, #540	; (adr r3, 8001670 <__ieee754_acos+0x288>)
 8001454:	e9d3 2300 	ldrd	r2, r3, [r3]
 8001458:	4606      	mov	r6, r0
 800145a:	460f      	mov	r7, r1
 800145c:	f7ff f878 	bl	8000550 <__aeabi_dmul>
 8001460:	a385      	add	r3, pc, #532	; (adr r3, 8001678 <__ieee754_acos+0x290>)
 8001462:	e9d3 2300 	ldrd	r2, r3, [r3]
 8001466:	f7fe febd 	bl	80001e4 <__adddf3>
 800146a:	4632      	mov	r2, r6
 800146c:	463b      	mov	r3, r7
 800146e:	f7ff f86f 	bl	8000550 <__aeabi_dmul>
 8001472:	a383      	add	r3, pc, #524	; (adr r3, 8001680 <__ieee754_acos+0x298>)
 8001474:	e9d3 2300 	ldrd	r2, r3, [r3]
 8001478:	f7fe feb2 	bl	80001e0 <__aeabi_dsub>
 800147c:	4632      	mov	r2, r6
 800147e:	463b      	mov	r3, r7
 8001480:	f7ff f866 	bl	8000550 <__aeabi_dmul>
 8001484:	a380      	add	r3, pc, #512	; (adr r3, 8001688 <__ieee754_acos+0x2a0>)
 8001486:	e9d3 2300 	ldrd	r2, r3, [r3]
 800148a:	f7fe feab 	bl	80001e4 <__adddf3>
 800148e:	4632      	mov	r2, r6
 8001490:	463b      	mov	r3, r7
 8001492:	f7ff f85d 	bl	8000550 <__aeabi_dmul>
 8001496:	a37e      	add	r3, pc, #504	; (adr r3, 8001690 <__ieee754_acos+0x2a8>)
 8001498:	e9d3 2300 	ldrd	r2, r3, [r3]
 800149c:	f7fe fea0 	bl	80001e0 <__aeabi_dsub>
 80014a0:	4632      	mov	r2, r6
 80014a2:	463b      	mov	r3, r7
 80014a4:	f7ff f854 	bl	8000550 <__aeabi_dmul>
 80014a8:	a37b      	add	r3, pc, #492	; (adr r3, 8001698 <__ieee754_acos+0x2b0>)
 80014aa:	e9d3 2300 	ldrd	r2, r3, [r3]
 80014ae:	f7fe fe99 	bl	80001e4 <__adddf3>
 80014b2:	4632      	mov	r2, r6
 80014b4:	463b      	mov	r3, r7
 80014b6:	f7ff f84b 	bl	8000550 <__aeabi_dmul>
 80014ba:	a379      	add	r3, pc, #484	; (adr r3, 80016a0 <__ieee754_acos+0x2b8>)
 80014bc:	e9d3 2300 	ldrd	r2, r3, [r3]
 80014c0:	4680      	mov	r8, r0
 80014c2:	4689      	mov	r9, r1
 80014c4:	4630      	mov	r0, r6
 80014c6:	4639      	mov	r1, r7
 80014c8:	f7ff f842 	bl	8000550 <__aeabi_dmul>
 80014cc:	a376      	add	r3, pc, #472	; (adr r3, 80016a8 <__ieee754_acos+0x2c0>)
 80014ce:	e9d3 2300 	ldrd	r2, r3, [r3]
 80014d2:	f7fe fe85 	bl	80001e0 <__aeabi_dsub>
 80014d6:	4632      	mov	r2, r6
 80014d8:	463b      	mov	r3, r7
 80014da:	f7ff f839 	bl	8000550 <__aeabi_dmul>
 80014de:	a374      	add	r3, pc, #464	; (adr r3, 80016b0 <__ieee754_acos+0x2c8>)
 80014e0:	e9d3 2300 	ldrd	r2, r3, [r3]
 80014e4:	f7fe fe7e 	bl	80001e4 <__adddf3>
 80014e8:	4632      	mov	r2, r6
 80014ea:	463b      	mov	r3, r7
 80014ec:	f7ff f830 	bl	8000550 <__aeabi_dmul>
 80014f0:	a371      	add	r3, pc, #452	; (adr r3, 80016b8 <__ieee754_acos+0x2d0>)
 80014f2:	e9d3 2300 	ldrd	r2, r3, [r3]
 80014f6:	f7fe fe73 	bl	80001e0 <__aeabi_dsub>
 80014fa:	4632      	mov	r2, r6
 80014fc:	463b      	mov	r3, r7
 80014fe:	f7ff f827 	bl	8000550 <__aeabi_dmul>
 8001502:	4b76      	ldr	r3, [pc, #472]	; (80016dc <__ieee754_acos+0x2f4>)
 8001504:	2200      	movs	r2, #0
 8001506:	f7fe fe6d 	bl	80001e4 <__adddf3>
 800150a:	4602      	mov	r2, r0
 800150c:	460b      	mov	r3, r1
 800150e:	4640      	mov	r0, r8
 8001510:	4649      	mov	r1, r9
 8001512:	f7ff f947 	bl	80007a4 <__aeabi_ddiv>
 8001516:	4622      	mov	r2, r4
 8001518:	462b      	mov	r3, r5
 800151a:	f7ff f819 	bl	8000550 <__aeabi_dmul>
 800151e:	4602      	mov	r2, r0
 8001520:	460b      	mov	r3, r1
 8001522:	a167      	add	r1, pc, #412	; (adr r1, 80016c0 <__ieee754_acos+0x2d8>)
 8001524:	e9d1 0100 	ldrd	r0, r1, [r1]
 8001528:	f7fe fe5a 	bl	80001e0 <__aeabi_dsub>
 800152c:	4602      	mov	r2, r0
 800152e:	460b      	mov	r3, r1
 8001530:	4620      	mov	r0, r4
 8001532:	4629      	mov	r1, r5
 8001534:	f7fe fe54 	bl	80001e0 <__aeabi_dsub>
 8001538:	4602      	mov	r2, r0
 800153a:	460b      	mov	r3, r1
 800153c:	a162      	add	r1, pc, #392	; (adr r1, 80016c8 <__ieee754_acos+0x2e0>)
 800153e:	e9d1 0100 	ldrd	r0, r1, [r1]
 8001542:	f7fe fe4d 	bl	80001e0 <__aeabi_dsub>
 8001546:	e771      	b.n	800142c <__ieee754_acos+0x44>
 8001548:	2d00      	cmp	r5, #0
 800154a:	f280 80cb 	bge.w	80016e4 <__ieee754_acos+0x2fc>
 800154e:	ee10 0a10 	vmov	r0, s0
 8001552:	4b62      	ldr	r3, [pc, #392]	; (80016dc <__ieee754_acos+0x2f4>)
 8001554:	2200      	movs	r2, #0
 8001556:	4629      	mov	r1, r5
 8001558:	f7fe fe44 	bl	80001e4 <__adddf3>
 800155c:	4b60      	ldr	r3, [pc, #384]	; (80016e0 <__ieee754_acos+0x2f8>)
 800155e:	2200      	movs	r2, #0
 8001560:	f7fe fff6 	bl	8000550 <__aeabi_dmul>
 8001564:	a342      	add	r3, pc, #264	; (adr r3, 8001670 <__ieee754_acos+0x288>)
 8001566:	e9d3 2300 	ldrd	r2, r3, [r3]
 800156a:	4604      	mov	r4, r0
 800156c:	460d      	mov	r5, r1
 800156e:	f7fe ffef 	bl	8000550 <__aeabi_dmul>
 8001572:	a341      	add	r3, pc, #260	; (adr r3, 8001678 <__ieee754_acos+0x290>)
 8001574:	e9d3 2300 	ldrd	r2, r3, [r3]
 8001578:	f7fe fe34 	bl	80001e4 <__adddf3>
 800157c:	4622      	mov	r2, r4
 800157e:	462b      	mov	r3, r5
 8001580:	f7fe ffe6 	bl	8000550 <__aeabi_dmul>
 8001584:	a33e      	add	r3, pc, #248	; (adr r3, 8001680 <__ieee754_acos+0x298>)
 8001586:	e9d3 2300 	ldrd	r2, r3, [r3]
 800158a:	f7fe fe29 	bl	80001e0 <__aeabi_dsub>
 800158e:	4622      	mov	r2, r4
 8001590:	462b      	mov	r3, r5
 8001592:	f7fe ffdd 	bl	8000550 <__aeabi_dmul>
 8001596:	a33c      	add	r3, pc, #240	; (adr r3, 8001688 <__ieee754_acos+0x2a0>)
 8001598:	e9d3 2300 	ldrd	r2, r3, [r3]
 800159c:	f7fe fe22 	bl	80001e4 <__adddf3>
 80015a0:	4622      	mov	r2, r4
 80015a2:	462b      	mov	r3, r5
 80015a4:	f7fe ffd4 	bl	8000550 <__aeabi_dmul>
 80015a8:	a339      	add	r3, pc, #228	; (adr r3, 8001690 <__ieee754_acos+0x2a8>)
 80015aa:	e9d3 2300 	ldrd	r2, r3, [r3]
 80015ae:	f7fe fe17 	bl	80001e0 <__aeabi_dsub>
 80015b2:	4622      	mov	r2, r4
 80015b4:	462b      	mov	r3, r5
 80015b6:	f7fe ffcb 	bl	8000550 <__aeabi_dmul>
 80015ba:	a337      	add	r3, pc, #220	; (adr r3, 8001698 <__ieee754_acos+0x2b0>)
 80015bc:	e9d3 2300 	ldrd	r2, r3, [r3]
 80015c0:	f7fe fe10 	bl	80001e4 <__adddf3>
 80015c4:	4622      	mov	r2, r4
 80015c6:	462b      	mov	r3, r5
 80015c8:	f7fe ffc2 	bl	8000550 <__aeabi_dmul>
 80015cc:	ec45 4b10 	vmov	d0, r4, r5
 80015d0:	4680      	mov	r8, r0
 80015d2:	4689      	mov	r9, r1
 80015d4:	f000 fdcc 	bl	8002170 <__ieee754_sqrt>
 80015d8:	a331      	add	r3, pc, #196	; (adr r3, 80016a0 <__ieee754_acos+0x2b8>)
 80015da:	e9d3 2300 	ldrd	r2, r3, [r3]
 80015de:	4620      	mov	r0, r4
 80015e0:	4629      	mov	r1, r5
 80015e2:	ec57 6b10 	vmov	r6, r7, d0
 80015e6:	f7fe ffb3 	bl	8000550 <__aeabi_dmul>
 80015ea:	a32f      	add	r3, pc, #188	; (adr r3, 80016a8 <__ieee754_acos+0x2c0>)
 80015ec:	e9d3 2300 	ldrd	r2, r3, [r3]
 80015f0:	f7fe fdf6 	bl	80001e0 <__aeabi_dsub>
 80015f4:	4622      	mov	r2, r4
 80015f6:	462b      	mov	r3, r5
 80015f8:	f7fe ffaa 	bl	8000550 <__aeabi_dmul>
 80015fc:	a32c      	add	r3, pc, #176	; (adr r3, 80016b0 <__ieee754_acos+0x2c8>)
 80015fe:	e9d3 2300 	ldrd	r2, r3, [r3]
 8001602:	f7fe fdef 	bl	80001e4 <__adddf3>
 8001606:	4622      	mov	r2, r4
 8001608:	462b      	mov	r3, r5
 800160a:	f7fe ffa1 	bl	8000550 <__aeabi_dmul>
 800160e:	a32a      	add	r3, pc, #168	; (adr r3, 80016b8 <__ieee754_acos+0x2d0>)
 8001610:	e9d3 2300 	ldrd	r2, r3, [r3]
 8001614:	f7fe fde4 	bl	80001e0 <__aeabi_dsub>
 8001618:	4622      	mov	r2, r4
 800161a:	462b      	mov	r3, r5
 800161c:	f7fe ff98 	bl	8000550 <__aeabi_dmul>
 8001620:	4b2e      	ldr	r3, [pc, #184]	; (80016dc <__ieee754_acos+0x2f4>)
 8001622:	2200      	movs	r2, #0
 8001624:	f7fe fdde 	bl	80001e4 <__adddf3>
 8001628:	4602      	mov	r2, r0
 800162a:	460b      	mov	r3, r1
 800162c:	4640      	mov	r0, r8
 800162e:	4649      	mov	r1, r9
 8001630:	f7ff f8b8 	bl	80007a4 <__aeabi_ddiv>
 8001634:	4632      	mov	r2, r6
 8001636:	463b      	mov	r3, r7
 8001638:	f7fe ff8a 	bl	8000550 <__aeabi_dmul>
 800163c:	a320      	add	r3, pc, #128	; (adr r3, 80016c0 <__ieee754_acos+0x2d8>)
 800163e:	e9d3 2300 	ldrd	r2, r3, [r3]
 8001642:	f7fe fdcd 	bl	80001e0 <__aeabi_dsub>
 8001646:	4632      	mov	r2, r6
 8001648:	463b      	mov	r3, r7
 800164a:	f7fe fdcb 	bl	80001e4 <__adddf3>
 800164e:	4602      	mov	r2, r0
 8001650:	460b      	mov	r3, r1
 8001652:	f7fe fdc7 	bl	80001e4 <__adddf3>
 8001656:	4602      	mov	r2, r0
 8001658:	460b      	mov	r3, r1
 800165a:	a103      	add	r1, pc, #12	; (adr r1, 8001668 <__ieee754_acos+0x280>)
 800165c:	e9d1 0100 	ldrd	r0, r1, [r1]
 8001660:	e76f      	b.n	8001542 <__ieee754_acos+0x15a>
 8001662:	bf00      	nop
 8001664:	f3af 8000 	nop.w
 8001668:	54442d18 	.word	0x54442d18
 800166c:	400921fb 	.word	0x400921fb
 8001670:	0dfdf709 	.word	0x0dfdf709
 8001674:	3f023de1 	.word	0x3f023de1
 8001678:	7501b288 	.word	0x7501b288
 800167c:	3f49efe0 	.word	0x3f49efe0
 8001680:	b5688f3b 	.word	0xb5688f3b
 8001684:	3fa48228 	.word	0x3fa48228
 8001688:	0e884455 	.word	0x0e884455
 800168c:	3fc9c155 	.word	0x3fc9c155
 8001690:	03eb6f7d 	.word	0x03eb6f7d
 8001694:	3fd4d612 	.word	0x3fd4d612
 8001698:	55555555 	.word	0x55555555
 800169c:	3fc55555 	.word	0x3fc55555
 80016a0:	b12e9282 	.word	0xb12e9282
 80016a4:	3fb3b8c5 	.word	0x3fb3b8c5
 80016a8:	1b8d0159 	.word	0x1b8d0159
 80016ac:	3fe6066c 	.word	0x3fe6066c
 80016b0:	9c598ac8 	.word	0x9c598ac8
 80016b4:	40002ae5 	.word	0x40002ae5
 80016b8:	1c8a2d4b 	.word	0x1c8a2d4b
 80016bc:	40033a27 	.word	0x40033a27
 80016c0:	33145c07 	.word	0x33145c07
 80016c4:	3c91a626 	.word	0x3c91a626
 80016c8:	54442d18 	.word	0x54442d18
 80016cc:	3ff921fb 	.word	0x3ff921fb
 80016d0:	3fefffff 	.word	0x3fefffff
 80016d4:	3fdfffff 	.word	0x3fdfffff
 80016d8:	3c600000 	.word	0x3c600000
 80016dc:	3ff00000 	.word	0x3ff00000
 80016e0:	3fe00000 	.word	0x3fe00000
 80016e4:	ee10 2a10 	vmov	r2, s0
 80016e8:	462b      	mov	r3, r5
 80016ea:	496d      	ldr	r1, [pc, #436]	; (80018a0 <__ieee754_acos+0x4b8>)
 80016ec:	2000      	movs	r0, #0
 80016ee:	f7fe fd77 	bl	80001e0 <__aeabi_dsub>
 80016f2:	4b6c      	ldr	r3, [pc, #432]	; (80018a4 <__ieee754_acos+0x4bc>)
 80016f4:	2200      	movs	r2, #0
 80016f6:	f7fe ff2b 	bl	8000550 <__aeabi_dmul>
 80016fa:	4604      	mov	r4, r0
 80016fc:	460d      	mov	r5, r1
 80016fe:	ec45 4b10 	vmov	d0, r4, r5
 8001702:	f000 fd35 	bl	8002170 <__ieee754_sqrt>
 8001706:	a34e      	add	r3, pc, #312	; (adr r3, 8001840 <__ieee754_acos+0x458>)
 8001708:	e9d3 2300 	ldrd	r2, r3, [r3]
 800170c:	4620      	mov	r0, r4
 800170e:	4629      	mov	r1, r5
 8001710:	ec59 8b10 	vmov	r8, r9, d0
 8001714:	f7fe ff1c 	bl	8000550 <__aeabi_dmul>
 8001718:	a34b      	add	r3, pc, #300	; (adr r3, 8001848 <__ieee754_acos+0x460>)
 800171a:	e9d3 2300 	ldrd	r2, r3, [r3]
 800171e:	f7fe fd61 	bl	80001e4 <__adddf3>
 8001722:	4622      	mov	r2, r4
 8001724:	462b      	mov	r3, r5
 8001726:	f7fe ff13 	bl	8000550 <__aeabi_dmul>
 800172a:	a349      	add	r3, pc, #292	; (adr r3, 8001850 <__ieee754_acos+0x468>)
 800172c:	e9d3 2300 	ldrd	r2, r3, [r3]
 8001730:	f7fe fd56 	bl	80001e0 <__aeabi_dsub>
 8001734:	4622      	mov	r2, r4
 8001736:	462b      	mov	r3, r5
 8001738:	f7fe ff0a 	bl	8000550 <__aeabi_dmul>
 800173c:	a346      	add	r3, pc, #280	; (adr r3, 8001858 <__ieee754_acos+0x470>)
 800173e:	e9d3 2300 	ldrd	r2, r3, [r3]
 8001742:	f7fe fd4f 	bl	80001e4 <__adddf3>
 8001746:	4622      	mov	r2, r4
 8001748:	462b      	mov	r3, r5
 800174a:	f7fe ff01 	bl	8000550 <__aeabi_dmul>
 800174e:	a344      	add	r3, pc, #272	; (adr r3, 8001860 <__ieee754_acos+0x478>)
 8001750:	e9d3 2300 	ldrd	r2, r3, [r3]
 8001754:	f7fe fd44 	bl	80001e0 <__aeabi_dsub>
 8001758:	4622      	mov	r2, r4
 800175a:	462b      	mov	r3, r5
 800175c:	f7fe fef8 	bl	8000550 <__aeabi_dmul>
 8001760:	a341      	add	r3, pc, #260	; (adr r3, 8001868 <__ieee754_acos+0x480>)
 8001762:	e9d3 2300 	ldrd	r2, r3, [r3]
 8001766:	f7fe fd3d 	bl	80001e4 <__adddf3>
 800176a:	4622      	mov	r2, r4
 800176c:	462b      	mov	r3, r5
 800176e:	f7fe feef 	bl	8000550 <__aeabi_dmul>
 8001772:	a33f      	add	r3, pc, #252	; (adr r3, 8001870 <__ieee754_acos+0x488>)
 8001774:	e9d3 2300 	ldrd	r2, r3, [r3]
 8001778:	4682      	mov	sl, r0
 800177a:	468b      	mov	fp, r1
 800177c:	4620      	mov	r0, r4
 800177e:	4629      	mov	r1, r5
 8001780:	f7fe fee6 	bl	8000550 <__aeabi_dmul>
 8001784:	a33c      	add	r3, pc, #240	; (adr r3, 8001878 <__ieee754_acos+0x490>)
 8001786:	e9d3 2300 	ldrd	r2, r3, [r3]
 800178a:	f7fe fd29 	bl	80001e0 <__aeabi_dsub>
 800178e:	4622      	mov	r2, r4
 8001790:	462b      	mov	r3, r5
 8001792:	f7fe fedd 	bl	8000550 <__aeabi_dmul>
 8001796:	a33a      	add	r3, pc, #232	; (adr r3, 8001880 <__ieee754_acos+0x498>)
 8001798:	e9d3 2300 	ldrd	r2, r3, [r3]
 800179c:	f7fe fd22 	bl	80001e4 <__adddf3>
 80017a0:	4622      	mov	r2, r4
 80017a2:	462b      	mov	r3, r5
 80017a4:	f7fe fed4 	bl	8000550 <__aeabi_dmul>
 80017a8:	a337      	add	r3, pc, #220	; (adr r3, 8001888 <__ieee754_acos+0x4a0>)
 80017aa:	e9d3 2300 	ldrd	r2, r3, [r3]
 80017ae:	f7fe fd17 	bl	80001e0 <__aeabi_dsub>
 80017b2:	4622      	mov	r2, r4
 80017b4:	462b      	mov	r3, r5
 80017b6:	f7fe fecb 	bl	8000550 <__aeabi_dmul>
 80017ba:	4b39      	ldr	r3, [pc, #228]	; (80018a0 <__ieee754_acos+0x4b8>)
 80017bc:	2200      	movs	r2, #0
 80017be:	f7fe fd11 	bl	80001e4 <__adddf3>
 80017c2:	4602      	mov	r2, r0
 80017c4:	460b      	mov	r3, r1
 80017c6:	4650      	mov	r0, sl
 80017c8:	4659      	mov	r1, fp
 80017ca:	f7fe ffeb 	bl	80007a4 <__aeabi_ddiv>
 80017ce:	4642      	mov	r2, r8
 80017d0:	464b      	mov	r3, r9
 80017d2:	f7fe febd 	bl	8000550 <__aeabi_dmul>
 80017d6:	2600      	movs	r6, #0
 80017d8:	4682      	mov	sl, r0
 80017da:	468b      	mov	fp, r1
 80017dc:	4632      	mov	r2, r6
 80017de:	464b      	mov	r3, r9
 80017e0:	4630      	mov	r0, r6
 80017e2:	4649      	mov	r1, r9
 80017e4:	f7fe feb4 	bl	8000550 <__aeabi_dmul>
 80017e8:	4602      	mov	r2, r0
 80017ea:	460b      	mov	r3, r1
 80017ec:	4620      	mov	r0, r4
 80017ee:	4629      	mov	r1, r5
 80017f0:	f7fe fcf6 	bl	80001e0 <__aeabi_dsub>
 80017f4:	4632      	mov	r2, r6
 80017f6:	4604      	mov	r4, r0
 80017f8:	460d      	mov	r5, r1
 80017fa:	464b      	mov	r3, r9
 80017fc:	4640      	mov	r0, r8
 80017fe:	4649      	mov	r1, r9
 8001800:	f7fe fcf0 	bl	80001e4 <__adddf3>
 8001804:	4602      	mov	r2, r0
 8001806:	460b      	mov	r3, r1
 8001808:	4620      	mov	r0, r4
 800180a:	4629      	mov	r1, r5
 800180c:	f7fe ffca 	bl	80007a4 <__aeabi_ddiv>
 8001810:	4602      	mov	r2, r0
 8001812:	460b      	mov	r3, r1
 8001814:	4650      	mov	r0, sl
 8001816:	4659      	mov	r1, fp
 8001818:	f7fe fce4 	bl	80001e4 <__adddf3>
 800181c:	4632      	mov	r2, r6
 800181e:	464b      	mov	r3, r9
 8001820:	f7fe fce0 	bl	80001e4 <__adddf3>
 8001824:	4602      	mov	r2, r0
 8001826:	460b      	mov	r3, r1
 8001828:	f7fe fcdc 	bl	80001e4 <__adddf3>
 800182c:	e5fe      	b.n	800142c <__ieee754_acos+0x44>
 800182e:	ed9f 0b18 	vldr	d0, [pc, #96]	; 8001890 <__ieee754_acos+0x4a8>
 8001832:	e5ed      	b.n	8001410 <__ieee754_acos+0x28>
 8001834:	ed9f 0b18 	vldr	d0, [pc, #96]	; 8001898 <__ieee754_acos+0x4b0>
 8001838:	e5ea      	b.n	8001410 <__ieee754_acos+0x28>
 800183a:	bf00      	nop
 800183c:	f3af 8000 	nop.w
 8001840:	0dfdf709 	.word	0x0dfdf709
 8001844:	3f023de1 	.word	0x3f023de1
 8001848:	7501b288 	.word	0x7501b288
 800184c:	3f49efe0 	.word	0x3f49efe0
 8001850:	b5688f3b 	.word	0xb5688f3b
 8001854:	3fa48228 	.word	0x3fa48228
 8001858:	0e884455 	.word	0x0e884455
 800185c:	3fc9c155 	.word	0x3fc9c155
 8001860:	03eb6f7d 	.word	0x03eb6f7d
 8001864:	3fd4d612 	.word	0x3fd4d612
 8001868:	55555555 	.word	0x55555555
 800186c:	3fc55555 	.word	0x3fc55555
 8001870:	b12e9282 	.word	0xb12e9282
 8001874:	3fb3b8c5 	.word	0x3fb3b8c5
 8001878:	1b8d0159 	.word	0x1b8d0159
 800187c:	3fe6066c 	.word	0x3fe6066c
 8001880:	9c598ac8 	.word	0x9c598ac8
 8001884:	40002ae5 	.word	0x40002ae5
 8001888:	1c8a2d4b 	.word	0x1c8a2d4b
 800188c:	40033a27 	.word	0x40033a27
	...
 8001898:	54442d18 	.word	0x54442d18
 800189c:	3ff921fb 	.word	0x3ff921fb
 80018a0:	3ff00000 	.word	0x3ff00000
 80018a4:	3fe00000 	.word	0x3fe00000

080018a8 <__ieee754_asin>:
 80018a8:	e92d 4ff0 	stmdb	sp!, {r4, r5, r6, r7, r8, r9, sl, fp, lr}
 80018ac:	ed2d 8b04 	vpush	{d8-d9}
 80018b0:	ec55 4b10 	vmov	r4, r5, d0
 80018b4:	4bcc      	ldr	r3, [pc, #816]	; (8001be8 <__ieee754_asin+0x340>)
 80018b6:	b083      	sub	sp, #12
 80018b8:	f025 4800 	bic.w	r8, r5, #2147483648	; 0x80000000
 80018bc:	4598      	cmp	r8, r3
 80018be:	9501      	str	r5, [sp, #4]
 80018c0:	dd33      	ble.n	800192a <__ieee754_asin+0x82>
 80018c2:	f108 4840 	add.w	r8, r8, #3221225472	; 0xc0000000
 80018c6:	f508 1880 	add.w	r8, r8, #1048576	; 0x100000
 80018ca:	ea58 0804 	orrs.w	r8, r8, r4
 80018ce:	d117      	bne.n	8001900 <__ieee754_asin+0x58>
 80018d0:	a3ab      	add	r3, pc, #684	; (adr r3, 8001b80 <__ieee754_asin+0x2d8>)
 80018d2:	e9d3 2300 	ldrd	r2, r3, [r3]
 80018d6:	ee10 0a10 	vmov	r0, s0
 80018da:	4629      	mov	r1, r5
 80018dc:	f7fe fe38 	bl	8000550 <__aeabi_dmul>
 80018e0:	a3a9      	add	r3, pc, #676	; (adr r3, 8001b88 <__ieee754_asin+0x2e0>)
 80018e2:	e9d3 2300 	ldrd	r2, r3, [r3]
 80018e6:	4606      	mov	r6, r0
 80018e8:	460f      	mov	r7, r1
 80018ea:	4620      	mov	r0, r4
 80018ec:	4629      	mov	r1, r5
 80018ee:	f7fe fe2f 	bl	8000550 <__aeabi_dmul>
 80018f2:	4602      	mov	r2, r0
 80018f4:	460b      	mov	r3, r1
 80018f6:	4630      	mov	r0, r6
 80018f8:	4639      	mov	r1, r7
 80018fa:	f7fe fc73 	bl	80001e4 <__adddf3>
 80018fe:	e00b      	b.n	8001918 <__ieee754_asin+0x70>
 8001900:	ee10 2a10 	vmov	r2, s0
 8001904:	462b      	mov	r3, r5
 8001906:	ee10 0a10 	vmov	r0, s0
 800190a:	4629      	mov	r1, r5
 800190c:	f7fe fc68 	bl	80001e0 <__aeabi_dsub>
 8001910:	4602      	mov	r2, r0
 8001912:	460b      	mov	r3, r1
 8001914:	f7fe ff46 	bl	80007a4 <__aeabi_ddiv>
 8001918:	4604      	mov	r4, r0
 800191a:	460d      	mov	r5, r1
 800191c:	ec45 4b10 	vmov	d0, r4, r5
 8001920:	b003      	add	sp, #12
 8001922:	ecbd 8b04 	vpop	{d8-d9}
 8001926:	e8bd 8ff0 	ldmia.w	sp!, {r4, r5, r6, r7, r8, r9, sl, fp, pc}
 800192a:	4bb0      	ldr	r3, [pc, #704]	; (8001bec <__ieee754_asin+0x344>)
 800192c:	4598      	cmp	r8, r3
 800192e:	dc11      	bgt.n	8001954 <__ieee754_asin+0xac>
 8001930:	f1b8 5f79 	cmp.w	r8, #1044381696	; 0x3e400000
 8001934:	f280 80ae 	bge.w	8001a94 <__ieee754_asin+0x1ec>
 8001938:	a395      	add	r3, pc, #596	; (adr r3, 8001b90 <__ieee754_asin+0x2e8>)
 800193a:	e9d3 2300 	ldrd	r2, r3, [r3]
 800193e:	ee10 0a10 	vmov	r0, s0
 8001942:	4629      	mov	r1, r5
 8001944:	f7fe fc4e 	bl	80001e4 <__adddf3>
 8001948:	4ba9      	ldr	r3, [pc, #676]	; (8001bf0 <__ieee754_asin+0x348>)
 800194a:	2200      	movs	r2, #0
 800194c:	f7ff f890 	bl	8000a70 <__aeabi_dcmpgt>
 8001950:	2800      	cmp	r0, #0
 8001952:	d1e3      	bne.n	800191c <__ieee754_asin+0x74>
 8001954:	ec45 4b10 	vmov	d0, r4, r5
 8001958:	f000 fbf6 	bl	8002148 <fabs>
 800195c:	49a4      	ldr	r1, [pc, #656]	; (8001bf0 <__ieee754_asin+0x348>)
 800195e:	ec53 2b10 	vmov	r2, r3, d0
 8001962:	2000      	movs	r0, #0
 8001964:	f7fe fc3c 	bl	80001e0 <__aeabi_dsub>
 8001968:	4ba2      	ldr	r3, [pc, #648]	; (8001bf4 <__ieee754_asin+0x34c>)
 800196a:	2200      	movs	r2, #0
 800196c:	f7fe fdf0 	bl	8000550 <__aeabi_dmul>
 8001970:	a389      	add	r3, pc, #548	; (adr r3, 8001b98 <__ieee754_asin+0x2f0>)
 8001972:	e9d3 2300 	ldrd	r2, r3, [r3]
 8001976:	4604      	mov	r4, r0
 8001978:	460d      	mov	r5, r1
 800197a:	f7fe fde9 	bl	8000550 <__aeabi_dmul>
 800197e:	a388      	add	r3, pc, #544	; (adr r3, 8001ba0 <__ieee754_asin+0x2f8>)
 8001980:	e9d3 2300 	ldrd	r2, r3, [r3]
 8001984:	f7fe fc2e 	bl	80001e4 <__adddf3>
 8001988:	4622      	mov	r2, r4
 800198a:	462b      	mov	r3, r5
 800198c:	f7fe fde0 	bl	8000550 <__aeabi_dmul>
 8001990:	a385      	add	r3, pc, #532	; (adr r3, 8001ba8 <__ieee754_asin+0x300>)
 8001992:	e9d3 2300 	ldrd	r2, r3, [r3]
 8001996:	f7fe fc23 	bl	80001e0 <__aeabi_dsub>
 800199a:	4622      	mov	r2, r4
 800199c:	462b      	mov	r3, r5
 800199e:	f7fe fdd7 	bl	8000550 <__aeabi_dmul>
 80019a2:	a383      	add	r3, pc, #524	; (adr r3, 8001bb0 <__ieee754_asin+0x308>)
 80019a4:	e9d3 2300 	ldrd	r2, r3, [r3]
 80019a8:	f7fe fc1c 	bl	80001e4 <__adddf3>
 80019ac:	4622      	mov	r2, r4
 80019ae:	462b      	mov	r3, r5
 80019b0:	f7fe fdce 	bl	8000550 <__aeabi_dmul>
 80019b4:	a380      	add	r3, pc, #512	; (adr r3, 8001bb8 <__ieee754_asin+0x310>)
 80019b6:	e9d3 2300 	ldrd	r2, r3, [r3]
 80019ba:	f7fe fc11 	bl	80001e0 <__aeabi_dsub>
 80019be:	4622      	mov	r2, r4
 80019c0:	462b      	mov	r3, r5
 80019c2:	f7fe fdc5 	bl	8000550 <__aeabi_dmul>
 80019c6:	a37e      	add	r3, pc, #504	; (adr r3, 8001bc0 <__ieee754_asin+0x318>)
 80019c8:	e9d3 2300 	ldrd	r2, r3, [r3]
 80019cc:	f7fe fc0a 	bl	80001e4 <__adddf3>
 80019d0:	4622      	mov	r2, r4
 80019d2:	462b      	mov	r3, r5
 80019d4:	f7fe fdbc 	bl	8000550 <__aeabi_dmul>
 80019d8:	a37b      	add	r3, pc, #492	; (adr r3, 8001bc8 <__ieee754_asin+0x320>)
 80019da:	e9d3 2300 	ldrd	r2, r3, [r3]
 80019de:	ec41 0b18 	vmov	d8, r0, r1
 80019e2:	4620      	mov	r0, r4
 80019e4:	4629      	mov	r1, r5
 80019e6:	f7fe fdb3 	bl	8000550 <__aeabi_dmul>
 80019ea:	a379      	add	r3, pc, #484	; (adr r3, 8001bd0 <__ieee754_asin+0x328>)
 80019ec:	e9d3 2300 	ldrd	r2, r3, [r3]
 80019f0:	f7fe fbf6 	bl	80001e0 <__aeabi_dsub>
 80019f4:	4622      	mov	r2, r4
 80019f6:	462b      	mov	r3, r5
 80019f8:	f7fe fdaa 	bl	8000550 <__aeabi_dmul>
 80019fc:	a376      	add	r3, pc, #472	; (adr r3, 8001bd8 <__ieee754_asin+0x330>)
 80019fe:	e9d3 2300 	ldrd	r2, r3, [r3]
 8001a02:	f7fe fbef 	bl	80001e4 <__adddf3>
 8001a06:	4622      	mov	r2, r4
 8001a08:	462b      	mov	r3, r5
 8001a0a:	f7fe fda1 	bl	8000550 <__aeabi_dmul>
 8001a0e:	a374      	add	r3, pc, #464	; (adr r3, 8001be0 <__ieee754_asin+0x338>)
 8001a10:	e9d3 2300 	ldrd	r2, r3, [r3]
 8001a14:	f7fe fbe4 	bl	80001e0 <__aeabi_dsub>
 8001a18:	4622      	mov	r2, r4
 8001a1a:	462b      	mov	r3, r5
 8001a1c:	f7fe fd98 	bl	8000550 <__aeabi_dmul>
 8001a20:	4b73      	ldr	r3, [pc, #460]	; (8001bf0 <__ieee754_asin+0x348>)
 8001a22:	2200      	movs	r2, #0
 8001a24:	f7fe fbde 	bl	80001e4 <__adddf3>
 8001a28:	ec45 4b10 	vmov	d0, r4, r5
 8001a2c:	4606      	mov	r6, r0
 8001a2e:	460f      	mov	r7, r1
 8001a30:	f000 fb9e 	bl	8002170 <__ieee754_sqrt>
 8001a34:	4b70      	ldr	r3, [pc, #448]	; (8001bf8 <__ieee754_asin+0x350>)
 8001a36:	4598      	cmp	r8, r3
 8001a38:	ec5b ab10 	vmov	sl, fp, d0
 8001a3c:	f340 80de 	ble.w	8001bfc <__ieee754_asin+0x354>
 8001a40:	4632      	mov	r2, r6
 8001a42:	463b      	mov	r3, r7
 8001a44:	ec51 0b18 	vmov	r0, r1, d8
 8001a48:	f7fe feac 	bl	80007a4 <__aeabi_ddiv>
 8001a4c:	4652      	mov	r2, sl
 8001a4e:	465b      	mov	r3, fp
 8001a50:	f7fe fd7e 	bl	8000550 <__aeabi_dmul>
 8001a54:	4652      	mov	r2, sl
 8001a56:	465b      	mov	r3, fp
 8001a58:	f7fe fbc4 	bl	80001e4 <__adddf3>
 8001a5c:	4602      	mov	r2, r0
 8001a5e:	460b      	mov	r3, r1
 8001a60:	f7fe fbc0 	bl	80001e4 <__adddf3>
 8001a64:	a348      	add	r3, pc, #288	; (adr r3, 8001b88 <__ieee754_asin+0x2e0>)
 8001a66:	e9d3 2300 	ldrd	r2, r3, [r3]
 8001a6a:	f7fe fbb9 	bl	80001e0 <__aeabi_dsub>
 8001a6e:	4602      	mov	r2, r0
 8001a70:	460b      	mov	r3, r1
 8001a72:	a143      	add	r1, pc, #268	; (adr r1, 8001b80 <__ieee754_asin+0x2d8>)
 8001a74:	e9d1 0100 	ldrd	r0, r1, [r1]
 8001a78:	f7fe fbb2 	bl	80001e0 <__aeabi_dsub>
 8001a7c:	9b01      	ldr	r3, [sp, #4]
 8001a7e:	2b00      	cmp	r3, #0
 8001a80:	bfdc      	itt	le
 8001a82:	4602      	movle	r2, r0
 8001a84:	f101 4300 	addle.w	r3, r1, #2147483648	; 0x80000000
 8001a88:	4604      	mov	r4, r0
 8001a8a:	460d      	mov	r5, r1
 8001a8c:	bfdc      	itt	le
 8001a8e:	4614      	movle	r4, r2
 8001a90:	461d      	movle	r5, r3
 8001a92:	e743      	b.n	800191c <__ieee754_asin+0x74>
 8001a94:	ee10 2a10 	vmov	r2, s0
 8001a98:	ee10 0a10 	vmov	r0, s0
 8001a9c:	462b      	mov	r3, r5
 8001a9e:	4629      	mov	r1, r5
 8001aa0:	f7fe fd56 	bl	8000550 <__aeabi_dmul>
 8001aa4:	a33c      	add	r3, pc, #240	; (adr r3, 8001b98 <__ieee754_asin+0x2f0>)
 8001aa6:	e9d3 2300 	ldrd	r2, r3, [r3]
 8001aaa:	4606      	mov	r6, r0
 8001aac:	460f      	mov	r7, r1
 8001aae:	f7fe fd4f 	bl	8000550 <__aeabi_dmul>
 8001ab2:	a33b      	add	r3, pc, #236	; (adr r3, 8001ba0 <__ieee754_asin+0x2f8>)
 8001ab4:	e9d3 2300 	ldrd	r2, r3, [r3]
 8001ab8:	f7fe fb94 	bl	80001e4 <__adddf3>
 8001abc:	4632      	mov	r2, r6
 8001abe:	463b      	mov	r3, r7
 8001ac0:	f7fe fd46 	bl	8000550 <__aeabi_dmul>
 8001ac4:	a338      	add	r3, pc, #224	; (adr r3, 8001ba8 <__ieee754_asin+0x300>)
 8001ac6:	e9d3 2300 	ldrd	r2, r3, [r3]
 8001aca:	f7fe fb89 	bl	80001e0 <__aeabi_dsub>
 8001ace:	4632      	mov	r2, r6
 8001ad0:	463b      	mov	r3, r7
 8001ad2:	f7fe fd3d 	bl	8000550 <__aeabi_dmul>
 8001ad6:	a336      	add	r3, pc, #216	; (adr r3, 8001bb0 <__ieee754_asin+0x308>)
 8001ad8:	e9d3 2300 	ldrd	r2, r3, [r3]
 8001adc:	f7fe fb82 	bl	80001e4 <__adddf3>
 8001ae0:	4632      	mov	r2, r6
 8001ae2:	463b      	mov	r3, r7
 8001ae4:	f7fe fd34 	bl	8000550 <__aeabi_dmul>
 8001ae8:	a333      	add	r3, pc, #204	; (adr r3, 8001bb8 <__ieee754_asin+0x310>)
 8001aea:	e9d3 2300 	ldrd	r2, r3, [r3]
 8001aee:	f7fe fb77 	bl	80001e0 <__aeabi_dsub>
 8001af2:	4632      	mov	r2, r6
 8001af4:	463b      	mov	r3, r7
 8001af6:	f7fe fd2b 	bl	8000550 <__aeabi_dmul>
 8001afa:	a331      	add	r3, pc, #196	; (adr r3, 8001bc0 <__ieee754_asin+0x318>)
 8001afc:	e9d3 2300 	ldrd	r2, r3, [r3]
 8001b00:	f7fe fb70 	bl	80001e4 <__adddf3>
 8001b04:	4632      	mov	r2, r6
 8001b06:	463b      	mov	r3, r7
 8001b08:	f7fe fd22 	bl	8000550 <__aeabi_dmul>
 8001b0c:	a32e      	add	r3, pc, #184	; (adr r3, 8001bc8 <__ieee754_asin+0x320>)
 8001b0e:	e9d3 2300 	ldrd	r2, r3, [r3]
 8001b12:	4680      	mov	r8, r0
 8001b14:	4689      	mov	r9, r1
 8001b16:	4630      	mov	r0, r6
 8001b18:	4639      	mov	r1, r7
 8001b1a:	f7fe fd19 	bl	8000550 <__aeabi_dmul>
 8001b1e:	a32c      	add	r3, pc, #176	; (adr r3, 8001bd0 <__ieee754_asin+0x328>)
 8001b20:	e9d3 2300 	ldrd	r2, r3, [r3]
 8001b24:	f7fe fb5c 	bl	80001e0 <__aeabi_dsub>
 8001b28:	4632      	mov	r2, r6
 8001b2a:	463b      	mov	r3, r7
 8001b2c:	f7fe fd10 	bl	8000550 <__aeabi_dmul>
 8001b30:	a329      	add	r3, pc, #164	; (adr r3, 8001bd8 <__ieee754_asin+0x330>)
 8001b32:	e9d3 2300 	ldrd	r2, r3, [r3]
 8001b36:	f7fe fb55 	bl	80001e4 <__adddf3>
 8001b3a:	4632      	mov	r2, r6
 8001b3c:	463b      	mov	r3, r7
 8001b3e:	f7fe fd07 	bl	8000550 <__aeabi_dmul>
 8001b42:	a327      	add	r3, pc, #156	; (adr r3, 8001be0 <__ieee754_asin+0x338>)
 8001b44:	e9d3 2300 	ldrd	r2, r3, [r3]
 8001b48:	f7fe fb4a 	bl	80001e0 <__aeabi_dsub>
 8001b4c:	4632      	mov	r2, r6
 8001b4e:	463b      	mov	r3, r7
 8001b50:	f7fe fcfe 	bl	8000550 <__aeabi_dmul>
 8001b54:	4b26      	ldr	r3, [pc, #152]	; (8001bf0 <__ieee754_asin+0x348>)
 8001b56:	2200      	movs	r2, #0
 8001b58:	f7fe fb44 	bl	80001e4 <__adddf3>
 8001b5c:	4602      	mov	r2, r0
 8001b5e:	460b      	mov	r3, r1
 8001b60:	4640      	mov	r0, r8
 8001b62:	4649      	mov	r1, r9
 8001b64:	f7fe fe1e 	bl	80007a4 <__aeabi_ddiv>
 8001b68:	4622      	mov	r2, r4
 8001b6a:	462b      	mov	r3, r5
 8001b6c:	f7fe fcf0 	bl	8000550 <__aeabi_dmul>
 8001b70:	4602      	mov	r2, r0
 8001b72:	460b      	mov	r3, r1
 8001b74:	4620      	mov	r0, r4
 8001b76:	4629      	mov	r1, r5
 8001b78:	e6bf      	b.n	80018fa <__ieee754_asin+0x52>
 8001b7a:	bf00      	nop
 8001b7c:	f3af 8000 	nop.w
 8001b80:	54442d18 	.word	0x54442d18
 8001b84:	3ff921fb 	.word	0x3ff921fb
 8001b88:	33145c07 	.word	0x33145c07
 8001b8c:	3c91a626 	.word	0x3c91a626
 8001b90:	8800759c 	.word	0x8800759c
 8001b94:	7e37e43c 	.word	0x7e37e43c
 8001b98:	0dfdf709 	.word	0x0dfdf709
 8001b9c:	3f023de1 	.word	0x3f023de1
 8001ba0:	7501b288 	.word	0x7501b288
 8001ba4:	3f49efe0 	.word	0x3f49efe0
 8001ba8:	b5688f3b 	.word	0xb5688f3b
 8001bac:	3fa48228 	.word	0x3fa48228
 8001bb0:	0e884455 	.word	0x0e884455
 8001bb4:	3fc9c155 	.word	0x3fc9c155
 8001bb8:	03eb6f7d 	.word	0x03eb6f7d
 8001bbc:	3fd4d612 	.word	0x3fd4d612
 8001bc0:	55555555 	.word	0x55555555
 8001bc4:	3fc55555 	.word	0x3fc55555
 8001bc8:	b12e9282 	.word	0xb12e9282
 8001bcc:	3fb3b8c5 	.word	0x3fb3b8c5
 8001bd0:	1b8d0159 	.word	0x1b8d0159
 8001bd4:	3fe6066c 	.word	0x3fe6066c
 8001bd8:	9c598ac8 	.word	0x9c598ac8
 8001bdc:	40002ae5 	.word	0x40002ae5
 8001be0:	1c8a2d4b 	.word	0x1c8a2d4b
 8001be4:	40033a27 	.word	0x40033a27
 8001be8:	3fefffff 	.word	0x3fefffff
 8001bec:	3fdfffff 	.word	0x3fdfffff
 8001bf0:	3ff00000 	.word	0x3ff00000
 8001bf4:	3fe00000 	.word	0x3fe00000
 8001bf8:	3fef3332 	.word	0x3fef3332
 8001bfc:	ee10 2a10 	vmov	r2, s0
 8001c00:	ee10 0a10 	vmov	r0, s0
 8001c04:	465b      	mov	r3, fp
 8001c06:	4659      	mov	r1, fp
 8001c08:	f7fe faec 	bl	80001e4 <__adddf3>
 8001c0c:	4632      	mov	r2, r6
 8001c0e:	463b      	mov	r3, r7
 8001c10:	ec41 0b19 	vmov	d9, r0, r1
 8001c14:	ec51 0b18 	vmov	r0, r1, d8
 8001c18:	f7fe fdc4 	bl	80007a4 <__aeabi_ddiv>
 8001c1c:	4602      	mov	r2, r0
 8001c1e:	460b      	mov	r3, r1
 8001c20:	ec51 0b19 	vmov	r0, r1, d9
 8001c24:	f7fe fc94 	bl	8000550 <__aeabi_dmul>
 8001c28:	f04f 0800 	mov.w	r8, #0
 8001c2c:	4606      	mov	r6, r0
 8001c2e:	460f      	mov	r7, r1
 8001c30:	4642      	mov	r2, r8
 8001c32:	465b      	mov	r3, fp
 8001c34:	4640      	mov	r0, r8
 8001c36:	4659      	mov	r1, fp
 8001c38:	f7fe fc8a 	bl	8000550 <__aeabi_dmul>
 8001c3c:	4602      	mov	r2, r0
 8001c3e:	460b      	mov	r3, r1
 8001c40:	4620      	mov	r0, r4
 8001c42:	4629      	mov	r1, r5
 8001c44:	f7fe facc 	bl	80001e0 <__aeabi_dsub>
 8001c48:	4642      	mov	r2, r8
 8001c4a:	4604      	mov	r4, r0
 8001c4c:	460d      	mov	r5, r1
 8001c4e:	465b      	mov	r3, fp
 8001c50:	4650      	mov	r0, sl
 8001c52:	4659      	mov	r1, fp
 8001c54:	f7fe fac6 	bl	80001e4 <__adddf3>
 8001c58:	4602      	mov	r2, r0
 8001c5a:	460b      	mov	r3, r1
 8001c5c:	4620      	mov	r0, r4
 8001c5e:	4629      	mov	r1, r5
 8001c60:	f7fe fda0 	bl	80007a4 <__aeabi_ddiv>
 8001c64:	4602      	mov	r2, r0
 8001c66:	460b      	mov	r3, r1
 8001c68:	f7fe fabc 	bl	80001e4 <__adddf3>
 8001c6c:	4602      	mov	r2, r0
 8001c6e:	460b      	mov	r3, r1
 8001c70:	a113      	add	r1, pc, #76	; (adr r1, 8001cc0 <__ieee754_asin+0x418>)
 8001c72:	e9d1 0100 	ldrd	r0, r1, [r1]
 8001c76:	f7fe fab3 	bl	80001e0 <__aeabi_dsub>
 8001c7a:	4602      	mov	r2, r0
 8001c7c:	460b      	mov	r3, r1
 8001c7e:	4630      	mov	r0, r6
 8001c80:	4639      	mov	r1, r7
 8001c82:	f7fe faad 	bl	80001e0 <__aeabi_dsub>
 8001c86:	4642      	mov	r2, r8
 8001c88:	4604      	mov	r4, r0
 8001c8a:	460d      	mov	r5, r1
 8001c8c:	465b      	mov	r3, fp
 8001c8e:	4640      	mov	r0, r8
 8001c90:	4659      	mov	r1, fp
 8001c92:	f7fe faa7 	bl	80001e4 <__adddf3>
 8001c96:	4602      	mov	r2, r0
 8001c98:	460b      	mov	r3, r1
 8001c9a:	a10b      	add	r1, pc, #44	; (adr r1, 8001cc8 <__ieee754_asin+0x420>)
 8001c9c:	e9d1 0100 	ldrd	r0, r1, [r1]
 8001ca0:	f7fe fa9e 	bl	80001e0 <__aeabi_dsub>
 8001ca4:	4602      	mov	r2, r0
 8001ca6:	460b      	mov	r3, r1
 8001ca8:	4620      	mov	r0, r4
 8001caa:	4629      	mov	r1, r5
 8001cac:	f7fe fa98 	bl	80001e0 <__aeabi_dsub>
 8001cb0:	4602      	mov	r2, r0
 8001cb2:	460b      	mov	r3, r1
 8001cb4:	a104      	add	r1, pc, #16	; (adr r1, 8001cc8 <__ieee754_asin+0x420>)
 8001cb6:	e9d1 0100 	ldrd	r0, r1, [r1]
 8001cba:	e6dd      	b.n	8001a78 <__ieee754_asin+0x1d0>
 8001cbc:	f3af 8000 	nop.w
 8001cc0:	33145c07 	.word	0x33145c07
 8001cc4:	3c91a626 	.word	0x3c91a626
 8001cc8:	54442d18 	.word	0x54442d18
 8001ccc:	3fe921fb 	.word	0x3fe921fb

08001cd0 <pow>:
 8001cd0:	b5f8      	push	{r3, r4, r5, r6, r7, lr}
 8001cd2:	ed2d 8b02 	vpush	{d8}
 8001cd6:	eeb0 8a40 	vmov.f32	s16, s0
 8001cda:	eef0 8a60 	vmov.f32	s17, s1
 8001cde:	ec55 4b11 	vmov	r4, r5, d1
 8001ce2:	f000 fb29 	bl	8002338 <__ieee754_pow>
 8001ce6:	4622      	mov	r2, r4
 8001ce8:	462b      	mov	r3, r5
 8001cea:	4620      	mov	r0, r4
 8001cec:	4629      	mov	r1, r5
 8001cee:	ec57 6b10 	vmov	r6, r7, d0
 8001cf2:	f7fe fec7 	bl	8000a84 <__aeabi_dcmpun>
 8001cf6:	2800      	cmp	r0, #0
 8001cf8:	d13b      	bne.n	8001d72 <pow+0xa2>
 8001cfa:	ec51 0b18 	vmov	r0, r1, d8
 8001cfe:	2200      	movs	r2, #0
 8001d00:	2300      	movs	r3, #0
 8001d02:	f7fe fe8d 	bl	8000a20 <__aeabi_dcmpeq>
 8001d06:	b1b8      	cbz	r0, 8001d38 <pow+0x68>
 8001d08:	2200      	movs	r2, #0
 8001d0a:	2300      	movs	r3, #0
 8001d0c:	4620      	mov	r0, r4
 8001d0e:	4629      	mov	r1, r5
 8001d10:	f7fe fe86 	bl	8000a20 <__aeabi_dcmpeq>
 8001d14:	2800      	cmp	r0, #0
 8001d16:	d146      	bne.n	8001da6 <pow+0xd6>
 8001d18:	ec45 4b10 	vmov	d0, r4, r5
 8001d1c:	f000 fa1d 	bl	800215a <finite>
 8001d20:	b338      	cbz	r0, 8001d72 <pow+0xa2>
 8001d22:	2200      	movs	r2, #0
 8001d24:	2300      	movs	r3, #0
 8001d26:	4620      	mov	r0, r4
 8001d28:	4629      	mov	r1, r5
 8001d2a:	f7fe fe83 	bl	8000a34 <__aeabi_dcmplt>
 8001d2e:	b300      	cbz	r0, 8001d72 <pow+0xa2>
 8001d30:	f7ff fac8 	bl	80012c4 <__errno>
 8001d34:	2322      	movs	r3, #34	; 0x22
 8001d36:	e01b      	b.n	8001d70 <pow+0xa0>
 8001d38:	ec47 6b10 	vmov	d0, r6, r7
 8001d3c:	f000 fa0d 	bl	800215a <finite>
 8001d40:	b9e0      	cbnz	r0, 8001d7c <pow+0xac>
 8001d42:	eeb0 0a48 	vmov.f32	s0, s16
 8001d46:	eef0 0a68 	vmov.f32	s1, s17
 8001d4a:	f000 fa06 	bl	800215a <finite>
 8001d4e:	b1a8      	cbz	r0, 8001d7c <pow+0xac>
 8001d50:	ec45 4b10 	vmov	d0, r4, r5
 8001d54:	f000 fa01 	bl	800215a <finite>
 8001d58:	b180      	cbz	r0, 8001d7c <pow+0xac>
 8001d5a:	4632      	mov	r2, r6
 8001d5c:	463b      	mov	r3, r7
 8001d5e:	4630      	mov	r0, r6
 8001d60:	4639      	mov	r1, r7
 8001d62:	f7fe fe8f 	bl	8000a84 <__aeabi_dcmpun>
 8001d66:	2800      	cmp	r0, #0
 8001d68:	d0e2      	beq.n	8001d30 <pow+0x60>
 8001d6a:	f7ff faab 	bl	80012c4 <__errno>
 8001d6e:	2321      	movs	r3, #33	; 0x21
 8001d70:	6003      	str	r3, [r0, #0]
 8001d72:	ecbd 8b02 	vpop	{d8}
 8001d76:	ec47 6b10 	vmov	d0, r6, r7
 8001d7a:	bdf8      	pop	{r3, r4, r5, r6, r7, pc}
 8001d7c:	2200      	movs	r2, #0
 8001d7e:	2300      	movs	r3, #0
 8001d80:	4630      	mov	r0, r6
 8001d82:	4639      	mov	r1, r7
 8001d84:	f7fe fe4c 	bl	8000a20 <__aeabi_dcmpeq>
 8001d88:	2800      	cmp	r0, #0
 8001d8a:	d0f2      	beq.n	8001d72 <pow+0xa2>
 8001d8c:	eeb0 0a48 	vmov.f32	s0, s16
 8001d90:	eef0 0a68 	vmov.f32	s1, s17
 8001d94:	f000 f9e1 	bl	800215a <finite>
 8001d98:	2800      	cmp	r0, #0
 8001d9a:	d0ea      	beq.n	8001d72 <pow+0xa2>
 8001d9c:	ec45 4b10 	vmov	d0, r4, r5
 8001da0:	f000 f9db 	bl	800215a <finite>
 8001da4:	e7c3      	b.n	8001d2e <pow+0x5e>
 8001da6:	4f01      	ldr	r7, [pc, #4]	; (8001dac <pow+0xdc>)
 8001da8:	2600      	movs	r6, #0
 8001daa:	e7e2      	b.n	8001d72 <pow+0xa2>
 8001dac:	3ff00000 	.word	0x3ff00000

08001db0 <sqrt>:
 8001db0:	b538      	push	{r3, r4, r5, lr}
 8001db2:	ed2d 8b02 	vpush	{d8}
 8001db6:	ec55 4b10 	vmov	r4, r5, d0
 8001dba:	f000 f9d9 	bl	8002170 <__ieee754_sqrt>
 8001dbe:	4622      	mov	r2, r4
 8001dc0:	462b      	mov	r3, r5
 8001dc2:	4620      	mov	r0, r4
 8001dc4:	4629      	mov	r1, r5
 8001dc6:	eeb0 8a40 	vmov.f32	s16, s0
 8001dca:	eef0 8a60 	vmov.f32	s17, s1
 8001dce:	f7fe fe59 	bl	8000a84 <__aeabi_dcmpun>
 8001dd2:	b990      	cbnz	r0, 8001dfa <sqrt+0x4a>
 8001dd4:	2200      	movs	r2, #0
 8001dd6:	2300      	movs	r3, #0
 8001dd8:	4620      	mov	r0, r4
 8001dda:	4629      	mov	r1, r5
 8001ddc:	f7fe fe2a 	bl	8000a34 <__aeabi_dcmplt>
 8001de0:	b158      	cbz	r0, 8001dfa <sqrt+0x4a>
 8001de2:	f7ff fa6f 	bl	80012c4 <__errno>
 8001de6:	2321      	movs	r3, #33	; 0x21
 8001de8:	6003      	str	r3, [r0, #0]
 8001dea:	2200      	movs	r2, #0
 8001dec:	2300      	movs	r3, #0
 8001dee:	4610      	mov	r0, r2
 8001df0:	4619      	mov	r1, r3
 8001df2:	f7fe fcd7 	bl	80007a4 <__aeabi_ddiv>
 8001df6:	ec41 0b18 	vmov	d8, r0, r1
 8001dfa:	eeb0 0a48 	vmov.f32	s0, s16
 8001dfe:	eef0 0a68 	vmov.f32	s1, s17
 8001e02:	ecbd 8b02 	vpop	{d8}
 8001e06:	bd38      	pop	{r3, r4, r5, pc}

08001e08 <atan>:
 8001e08:	e92d 4ff8 	stmdb	sp!, {r3, r4, r5, r6, r7, r8, r9, sl, fp, lr}
 8001e0c:	ec55 4b10 	vmov	r4, r5, d0
 8001e10:	4bc3      	ldr	r3, [pc, #780]	; (8002120 <atan+0x318>)
 8001e12:	f025 4600 	bic.w	r6, r5, #2147483648	; 0x80000000
 8001e16:	429e      	cmp	r6, r3
 8001e18:	46ab      	mov	fp, r5
 8001e1a:	dd18      	ble.n	8001e4e <atan+0x46>
 8001e1c:	4bc1      	ldr	r3, [pc, #772]	; (8002124 <atan+0x31c>)
 8001e1e:	429e      	cmp	r6, r3
 8001e20:	dc01      	bgt.n	8001e26 <atan+0x1e>
 8001e22:	d109      	bne.n	8001e38 <atan+0x30>
 8001e24:	b144      	cbz	r4, 8001e38 <atan+0x30>
 8001e26:	4622      	mov	r2, r4
 8001e28:	462b      	mov	r3, r5
 8001e2a:	4620      	mov	r0, r4
 8001e2c:	4629      	mov	r1, r5
 8001e2e:	f7fe f9d9 	bl	80001e4 <__adddf3>
 8001e32:	4604      	mov	r4, r0
 8001e34:	460d      	mov	r5, r1
 8001e36:	e006      	b.n	8001e46 <atan+0x3e>
 8001e38:	f1bb 0f00 	cmp.w	fp, #0
 8001e3c:	f300 8131 	bgt.w	80020a2 <atan+0x29a>
 8001e40:	a59b      	add	r5, pc, #620	; (adr r5, 80020b0 <atan+0x2a8>)
 8001e42:	e9d5 4500 	ldrd	r4, r5, [r5]
 8001e46:	ec45 4b10 	vmov	d0, r4, r5
 8001e4a:	e8bd 8ff8 	ldmia.w	sp!, {r3, r4, r5, r6, r7, r8, r9, sl, fp, pc}
 8001e4e:	4bb6      	ldr	r3, [pc, #728]	; (8002128 <atan+0x320>)
 8001e50:	429e      	cmp	r6, r3
 8001e52:	dc14      	bgt.n	8001e7e <atan+0x76>
 8001e54:	f1a3 73de 	sub.w	r3, r3, #29097984	; 0x1bc0000
 8001e58:	429e      	cmp	r6, r3
 8001e5a:	dc0d      	bgt.n	8001e78 <atan+0x70>
 8001e5c:	a396      	add	r3, pc, #600	; (adr r3, 80020b8 <atan+0x2b0>)
 8001e5e:	e9d3 2300 	ldrd	r2, r3, [r3]
 8001e62:	ee10 0a10 	vmov	r0, s0
 8001e66:	4629      	mov	r1, r5
 8001e68:	f7fe f9bc 	bl	80001e4 <__adddf3>
 8001e6c:	4baf      	ldr	r3, [pc, #700]	; (800212c <atan+0x324>)
 8001e6e:	2200      	movs	r2, #0
 8001e70:	f7fe fdfe 	bl	8000a70 <__aeabi_dcmpgt>
 8001e74:	2800      	cmp	r0, #0
 8001e76:	d1e6      	bne.n	8001e46 <atan+0x3e>
 8001e78:	f04f 3aff 	mov.w	sl, #4294967295	; 0xffffffff
 8001e7c:	e02b      	b.n	8001ed6 <atan+0xce>
 8001e7e:	f000 f963 	bl	8002148 <fabs>
 8001e82:	4bab      	ldr	r3, [pc, #684]	; (8002130 <atan+0x328>)
 8001e84:	429e      	cmp	r6, r3
 8001e86:	ec55 4b10 	vmov	r4, r5, d0
 8001e8a:	f300 80bf 	bgt.w	800200c <atan+0x204>
 8001e8e:	f5a3 2350 	sub.w	r3, r3, #851968	; 0xd0000
 8001e92:	429e      	cmp	r6, r3
 8001e94:	f300 80a0 	bgt.w	8001fd8 <atan+0x1d0>
 8001e98:	ee10 2a10 	vmov	r2, s0
 8001e9c:	ee10 0a10 	vmov	r0, s0
 8001ea0:	462b      	mov	r3, r5
 8001ea2:	4629      	mov	r1, r5
 8001ea4:	f7fe f99e 	bl	80001e4 <__adddf3>
 8001ea8:	4ba0      	ldr	r3, [pc, #640]	; (800212c <atan+0x324>)
 8001eaa:	2200      	movs	r2, #0
 8001eac:	f7fe f998 	bl	80001e0 <__aeabi_dsub>
 8001eb0:	2200      	movs	r2, #0
 8001eb2:	4606      	mov	r6, r0
 8001eb4:	460f      	mov	r7, r1
 8001eb6:	f04f 4380 	mov.w	r3, #1073741824	; 0x40000000
 8001eba:	4620      	mov	r0, r4
 8001ebc:	4629      	mov	r1, r5
 8001ebe:	f7fe f991 	bl	80001e4 <__adddf3>
 8001ec2:	4602      	mov	r2, r0
 8001ec4:	460b      	mov	r3, r1
 8001ec6:	4630      	mov	r0, r6
 8001ec8:	4639      	mov	r1, r7
 8001eca:	f7fe fc6b 	bl	80007a4 <__aeabi_ddiv>
 8001ece:	f04f 0a00 	mov.w	sl, #0
 8001ed2:	4604      	mov	r4, r0
 8001ed4:	460d      	mov	r5, r1
 8001ed6:	4622      	mov	r2, r4
 8001ed8:	462b      	mov	r3, r5
 8001eda:	4620      	mov	r0, r4
 8001edc:	4629      	mov	r1, r5
 8001ede:	f7fe fb37 	bl	8000550 <__aeabi_dmul>
 8001ee2:	4602      	mov	r2, r0
 8001ee4:	460b      	mov	r3, r1
 8001ee6:	4680      	mov	r8, r0
 8001ee8:	4689      	mov	r9, r1
 8001eea:	f7fe fb31 	bl	8000550 <__aeabi_dmul>
 8001eee:	a374      	add	r3, pc, #464	; (adr r3, 80020c0 <atan+0x2b8>)
 8001ef0:	e9d3 2300 	ldrd	r2, r3, [r3]
 8001ef4:	4606      	mov	r6, r0
 8001ef6:	460f      	mov	r7, r1
 8001ef8:	f7fe fb2a 	bl	8000550 <__aeabi_dmul>
 8001efc:	a372      	add	r3, pc, #456	; (adr r3, 80020c8 <atan+0x2c0>)
 8001efe:	e9d3 2300 	ldrd	r2, r3, [r3]
 8001f02:	f7fe f96f 	bl	80001e4 <__adddf3>
 8001f06:	4632      	mov	r2, r6
 8001f08:	463b      	mov	r3, r7
 8001f0a:	f7fe fb21 	bl	8000550 <__aeabi_dmul>
 8001f0e:	a370      	add	r3, pc, #448	; (adr r3, 80020d0 <atan+0x2c8>)
 8001f10:	e9d3 2300 	ldrd	r2, r3, [r3]
 8001f14:	f7fe f966 	bl	80001e4 <__adddf3>
 8001f18:	4632      	mov	r2, r6
 8001f1a:	463b      	mov	r3, r7
 8001f1c:	f7fe fb18 	bl	8000550 <__aeabi_dmul>
 8001f20:	a36d      	add	r3, pc, #436	; (adr r3, 80020d8 <atan+0x2d0>)
 8001f22:	e9d3 2300 	ldrd	r2, r3, [r3]
 8001f26:	f7fe f95d 	bl	80001e4 <__adddf3>
 8001f2a:	4632      	mov	r2, r6
 8001f2c:	463b      	mov	r3, r7
 8001f2e:	f7fe fb0f 	bl	8000550 <__aeabi_dmul>
 8001f32:	a36b      	add	r3, pc, #428	; (adr r3, 80020e0 <atan+0x2d8>)
 8001f34:	e9d3 2300 	ldrd	r2, r3, [r3]
 8001f38:	f7fe f954 	bl	80001e4 <__adddf3>
 8001f3c:	4632      	mov	r2, r6
 8001f3e:	463b      	mov	r3, r7
 8001f40:	f7fe fb06 	bl	8000550 <__aeabi_dmul>
 8001f44:	a368      	add	r3, pc, #416	; (adr r3, 80020e8 <atan+0x2e0>)
 8001f46:	e9d3 2300 	ldrd	r2, r3, [r3]
 8001f4a:	f7fe f94b 	bl	80001e4 <__adddf3>
 8001f4e:	4642      	mov	r2, r8
 8001f50:	464b      	mov	r3, r9
 8001f52:	f7fe fafd 	bl	8000550 <__aeabi_dmul>
 8001f56:	a366      	add	r3, pc, #408	; (adr r3, 80020f0 <atan+0x2e8>)
 8001f58:	e9d3 2300 	ldrd	r2, r3, [r3]
 8001f5c:	4680      	mov	r8, r0
 8001f5e:	4689      	mov	r9, r1
 8001f60:	4630      	mov	r0, r6
 8001f62:	4639      	mov	r1, r7
 8001f64:	f7fe faf4 	bl	8000550 <__aeabi_dmul>
 8001f68:	a363      	add	r3, pc, #396	; (adr r3, 80020f8 <atan+0x2f0>)
 8001f6a:	e9d3 2300 	ldrd	r2, r3, [r3]
 8001f6e:	f7fe f937 	bl	80001e0 <__aeabi_dsub>
 8001f72:	4632      	mov	r2, r6
 8001f74:	463b      	mov	r3, r7
 8001f76:	f7fe faeb 	bl	8000550 <__aeabi_dmul>
 8001f7a:	a361      	add	r3, pc, #388	; (adr r3, 8002100 <atan+0x2f8>)
 8001f7c:	e9d3 2300 	ldrd	r2, r3, [r3]
 8001f80:	f7fe f92e 	bl	80001e0 <__aeabi_dsub>
 8001f84:	4632      	mov	r2, r6
 8001f86:	463b      	mov	r3, r7
 8001f88:	f7fe fae2 	bl	8000550 <__aeabi_dmul>
 8001f8c:	a35e      	add	r3, pc, #376	; (adr r3, 8002108 <atan+0x300>)
 8001f8e:	e9d3 2300 	ldrd	r2, r3, [r3]
 8001f92:	f7fe f925 	bl	80001e0 <__aeabi_dsub>
 8001f96:	4632      	mov	r2, r6
 8001f98:	463b      	mov	r3, r7
 8001f9a:	f7fe fad9 	bl	8000550 <__aeabi_dmul>
 8001f9e:	a35c      	add	r3, pc, #368	; (adr r3, 8002110 <atan+0x308>)
 8001fa0:	e9d3 2300 	ldrd	r2, r3, [r3]
 8001fa4:	f7fe f91c 	bl	80001e0 <__aeabi_dsub>
 8001fa8:	4632      	mov	r2, r6
 8001faa:	463b      	mov	r3, r7
 8001fac:	f7fe fad0 	bl	8000550 <__aeabi_dmul>
 8001fb0:	4602      	mov	r2, r0
 8001fb2:	460b      	mov	r3, r1
 8001fb4:	4640      	mov	r0, r8
 8001fb6:	4649      	mov	r1, r9
 8001fb8:	f7fe f914 	bl	80001e4 <__adddf3>
 8001fbc:	4622      	mov	r2, r4
 8001fbe:	462b      	mov	r3, r5
 8001fc0:	f7fe fac6 	bl	8000550 <__aeabi_dmul>
 8001fc4:	f1ba 3fff 	cmp.w	sl, #4294967295	; 0xffffffff
 8001fc8:	4602      	mov	r2, r0
 8001fca:	460b      	mov	r3, r1
 8001fcc:	d14b      	bne.n	8002066 <atan+0x25e>
 8001fce:	4620      	mov	r0, r4
 8001fd0:	4629      	mov	r1, r5
 8001fd2:	f7fe f905 	bl	80001e0 <__aeabi_dsub>
 8001fd6:	e72c      	b.n	8001e32 <atan+0x2a>
 8001fd8:	ee10 0a10 	vmov	r0, s0
 8001fdc:	4b53      	ldr	r3, [pc, #332]	; (800212c <atan+0x324>)
 8001fde:	2200      	movs	r2, #0
 8001fe0:	4629      	mov	r1, r5
 8001fe2:	f7fe f8fd 	bl	80001e0 <__aeabi_dsub>
 8001fe6:	4b51      	ldr	r3, [pc, #324]	; (800212c <atan+0x324>)
 8001fe8:	4606      	mov	r6, r0
 8001fea:	460f      	mov	r7, r1
 8001fec:	2200      	movs	r2, #0
 8001fee:	4620      	mov	r0, r4
 8001ff0:	4629      	mov	r1, r5
 8001ff2:	f7fe f8f7 	bl	80001e4 <__adddf3>
 8001ff6:	4602      	mov	r2, r0
 8001ff8:	460b      	mov	r3, r1
 8001ffa:	4630      	mov	r0, r6
 8001ffc:	4639      	mov	r1, r7
 8001ffe:	f7fe fbd1 	bl	80007a4 <__aeabi_ddiv>
 8002002:	f04f 0a01 	mov.w	sl, #1
 8002006:	4604      	mov	r4, r0
 8002008:	460d      	mov	r5, r1
 800200a:	e764      	b.n	8001ed6 <atan+0xce>
 800200c:	4b49      	ldr	r3, [pc, #292]	; (8002134 <atan+0x32c>)
 800200e:	429e      	cmp	r6, r3
 8002010:	da1d      	bge.n	800204e <atan+0x246>
 8002012:	ee10 0a10 	vmov	r0, s0
 8002016:	4b48      	ldr	r3, [pc, #288]	; (8002138 <atan+0x330>)
 8002018:	2200      	movs	r2, #0
 800201a:	4629      	mov	r1, r5
 800201c:	f7fe f8e0 	bl	80001e0 <__aeabi_dsub>
 8002020:	4b45      	ldr	r3, [pc, #276]	; (8002138 <atan+0x330>)
 8002022:	4606      	mov	r6, r0
 8002024:	460f      	mov	r7, r1
 8002026:	2200      	movs	r2, #0
 8002028:	4620      	mov	r0, r4
 800202a:	4629      	mov	r1, r5
 800202c:	f7fe fa90 	bl	8000550 <__aeabi_dmul>
 8002030:	4b3e      	ldr	r3, [pc, #248]	; (800212c <atan+0x324>)
 8002032:	2200      	movs	r2, #0
 8002034:	f7fe f8d6 	bl	80001e4 <__adddf3>
 8002038:	4602      	mov	r2, r0
 800203a:	460b      	mov	r3, r1
 800203c:	4630      	mov	r0, r6
 800203e:	4639      	mov	r1, r7
 8002040:	f7fe fbb0 	bl	80007a4 <__aeabi_ddiv>
 8002044:	f04f 0a02 	mov.w	sl, #2
 8002048:	4604      	mov	r4, r0
 800204a:	460d      	mov	r5, r1
 800204c:	e743      	b.n	8001ed6 <atan+0xce>
 800204e:	462b      	mov	r3, r5
 8002050:	ee10 2a10 	vmov	r2, s0
 8002054:	4939      	ldr	r1, [pc, #228]	; (800213c <atan+0x334>)
 8002056:	2000      	movs	r0, #0
 8002058:	f7fe fba4 	bl	80007a4 <__aeabi_ddiv>
 800205c:	f04f 0a03 	mov.w	sl, #3
 8002060:	4604      	mov	r4, r0
 8002062:	460d      	mov	r5, r1
 8002064:	e737      	b.n	8001ed6 <atan+0xce>
 8002066:	4b36      	ldr	r3, [pc, #216]	; (8002140 <atan+0x338>)
 8002068:	4e36      	ldr	r6, [pc, #216]	; (8002144 <atan+0x33c>)
 800206a:	eb03 03ca 	add.w	r3, r3, sl, lsl #3
 800206e:	e9d3 2300 	ldrd	r2, r3, [r3]
 8002072:	f7fe f8b5 	bl	80001e0 <__aeabi_dsub>
 8002076:	4622      	mov	r2, r4
 8002078:	462b      	mov	r3, r5
 800207a:	f7fe f8b1 	bl	80001e0 <__aeabi_dsub>
 800207e:	eb06 06ca 	add.w	r6, r6, sl, lsl #3
 8002082:	4602      	mov	r2, r0
 8002084:	460b      	mov	r3, r1
 8002086:	e9d6 0100 	ldrd	r0, r1, [r6]
 800208a:	f7fe f8a9 	bl	80001e0 <__aeabi_dsub>
 800208e:	f1bb 0f00 	cmp.w	fp, #0
 8002092:	4604      	mov	r4, r0
 8002094:	460d      	mov	r5, r1
 8002096:	f6bf aed6 	bge.w	8001e46 <atan+0x3e>
 800209a:	f101 4300 	add.w	r3, r1, #2147483648	; 0x80000000
 800209e:	461d      	mov	r5, r3
 80020a0:	e6d1      	b.n	8001e46 <atan+0x3e>
 80020a2:	a51d      	add	r5, pc, #116	; (adr r5, 8002118 <atan+0x310>)
 80020a4:	e9d5 4500 	ldrd	r4, r5, [r5]
 80020a8:	e6cd      	b.n	8001e46 <atan+0x3e>
 80020aa:	bf00      	nop
 80020ac:	f3af 8000 	nop.w
 80020b0:	54442d18 	.word	0x54442d18
 80020b4:	bff921fb 	.word	0xbff921fb
 80020b8:	8800759c 	.word	0x8800759c
 80020bc:	7e37e43c 	.word	0x7e37e43c
 80020c0:	e322da11 	.word	0xe322da11
 80020c4:	3f90ad3a 	.word	0x3f90ad3a
 80020c8:	24760deb 	.word	0x24760deb
 80020cc:	3fa97b4b 	.word	0x3fa97b4b
 80020d0:	a0d03d51 	.word	0xa0d03d51
 80020d4:	3fb10d66 	.word	0x3fb10d66
 80020d8:	c54c206e 	.word	0xc54c206e
 80020dc:	3fb745cd 	.word	0x3fb745cd
 80020e0:	920083ff 	.word	0x920083ff
 80020e4:	3fc24924 	.word	0x3fc24924
 80020e8:	5555550d 	.word	0x5555550d
 80020ec:	3fd55555 	.word	0x3fd55555
 80020f0:	2c6a6c2f 	.word	0x2c6a6c2f
 80020f4:	bfa2b444 	.word	0xbfa2b444
 80020f8:	52defd9a 	.word	0x52defd9a
 80020fc:	3fadde2d 	.word	0x3fadde2d
 8002100:	af749a6d 	.word	0xaf749a6d
 8002104:	3fb3b0f2 	.word	0x3fb3b0f2
 8002108:	fe231671 	.word	0xfe231671
 800210c:	3fbc71c6 	.word	0x3fbc71c6
 8002110:	9998ebc4 	.word	0x9998ebc4
 8002114:	3fc99999 	.word	0x3fc99999
 8002118:	54442d18 	.word	0x54442d18
 800211c:	3ff921fb 	.word	0x3ff921fb
 8002120:	440fffff 	.word	0x440fffff
 8002124:	7ff00000 	.word	0x7ff00000
 8002128:	3fdbffff 	.word	0x3fdbffff
 800212c:	3ff00000 	.word	0x3ff00000
 8002130:	3ff2ffff 	.word	0x3ff2ffff
 8002134:	40038000 	.word	0x40038000
 8002138:	3ff80000 	.word	0x3ff80000
 800213c:	bff00000 	.word	0xbff00000
 8002140:	08002f30 	.word	0x08002f30
 8002144:	08002f10 	.word	0x08002f10

08002148 <fabs>:
 8002148:	ec51 0b10 	vmov	r0, r1, d0
 800214c:	ee10 2a10 	vmov	r2, s0
 8002150:	f021 4300 	bic.w	r3, r1, #2147483648	; 0x80000000
 8002154:	ec43 2b10 	vmov	d0, r2, r3
 8002158:	4770      	bx	lr

0800215a <finite>:
 800215a:	b082      	sub	sp, #8
 800215c:	ed8d 0b00 	vstr	d0, [sp]
 8002160:	9801      	ldr	r0, [sp, #4]
 8002162:	f040 4000 	orr.w	r0, r0, #2147483648	; 0x80000000
 8002166:	f500 1080 	add.w	r0, r0, #1048576	; 0x100000
 800216a:	0fc0      	lsrs	r0, r0, #31
 800216c:	b002      	add	sp, #8
 800216e:	4770      	bx	lr

08002170 <__ieee754_sqrt>:
 8002170:	e92d 4ff8 	stmdb	sp!, {r3, r4, r5, r6, r7, r8, r9, sl, fp, lr}
 8002174:	ec55 4b10 	vmov	r4, r5, d0
 8002178:	4e67      	ldr	r6, [pc, #412]	; (8002318 <__ieee754_sqrt+0x1a8>)
 800217a:	43ae      	bics	r6, r5
 800217c:	ee10 0a10 	vmov	r0, s0
 8002180:	ee10 2a10 	vmov	r2, s0
 8002184:	4629      	mov	r1, r5
 8002186:	462b      	mov	r3, r5
 8002188:	d10d      	bne.n	80021a6 <__ieee754_sqrt+0x36>
 800218a:	f7fe f9e1 	bl	8000550 <__aeabi_dmul>
 800218e:	4602      	mov	r2, r0
 8002190:	460b      	mov	r3, r1
 8002192:	4620      	mov	r0, r4
 8002194:	4629      	mov	r1, r5
 8002196:	f7fe f825 	bl	80001e4 <__adddf3>
 800219a:	4604      	mov	r4, r0
 800219c:	460d      	mov	r5, r1
 800219e:	ec45 4b10 	vmov	d0, r4, r5
 80021a2:	e8bd 8ff8 	ldmia.w	sp!, {r3, r4, r5, r6, r7, r8, r9, sl, fp, pc}
 80021a6:	2d00      	cmp	r5, #0
 80021a8:	dc0b      	bgt.n	80021c2 <__ieee754_sqrt+0x52>
 80021aa:	f025 4600 	bic.w	r6, r5, #2147483648	; 0x80000000
 80021ae:	4326      	orrs	r6, r4
 80021b0:	d0f5      	beq.n	800219e <__ieee754_sqrt+0x2e>
 80021b2:	b135      	cbz	r5, 80021c2 <__ieee754_sqrt+0x52>
 80021b4:	f7fe f814 	bl	80001e0 <__aeabi_dsub>
 80021b8:	4602      	mov	r2, r0
 80021ba:	460b      	mov	r3, r1
 80021bc:	f7fe faf2 	bl	80007a4 <__aeabi_ddiv>
 80021c0:	e7eb      	b.n	800219a <__ieee754_sqrt+0x2a>
 80021c2:	1509      	asrs	r1, r1, #20
 80021c4:	f000 808d 	beq.w	80022e2 <__ieee754_sqrt+0x172>
 80021c8:	f3c3 0313 	ubfx	r3, r3, #0, #20
 80021cc:	f2a1 36ff 	subw	r6, r1, #1023	; 0x3ff
 80021d0:	f443 1380 	orr.w	r3, r3, #1048576	; 0x100000
 80021d4:	07c9      	lsls	r1, r1, #31
 80021d6:	bf5c      	itt	pl
 80021d8:	005b      	lslpl	r3, r3, #1
 80021da:	eb03 73d2 	addpl.w	r3, r3, r2, lsr #31
 80021de:	ea4f 0343 	mov.w	r3, r3, lsl #1
 80021e2:	bf58      	it	pl
 80021e4:	0052      	lslpl	r2, r2, #1
 80021e6:	2500      	movs	r5, #0
 80021e8:	eb03 73d2 	add.w	r3, r3, r2, lsr #31
 80021ec:	1076      	asrs	r6, r6, #1
 80021ee:	0052      	lsls	r2, r2, #1
 80021f0:	f04f 0e16 	mov.w	lr, #22
 80021f4:	46ac      	mov	ip, r5
 80021f6:	f44f 1100 	mov.w	r1, #2097152	; 0x200000
 80021fa:	eb0c 0001 	add.w	r0, ip, r1
 80021fe:	4298      	cmp	r0, r3
 8002200:	bfde      	ittt	le
 8002202:	1a1b      	suble	r3, r3, r0
 8002204:	eb00 0c01 	addle.w	ip, r0, r1
 8002208:	186d      	addle	r5, r5, r1
 800220a:	005b      	lsls	r3, r3, #1
 800220c:	f1be 0e01 	subs.w	lr, lr, #1
 8002210:	eb03 73d2 	add.w	r3, r3, r2, lsr #31
 8002214:	ea4f 0151 	mov.w	r1, r1, lsr #1
 8002218:	ea4f 0242 	mov.w	r2, r2, lsl #1
 800221c:	d1ed      	bne.n	80021fa <__ieee754_sqrt+0x8a>
 800221e:	4674      	mov	r4, lr
 8002220:	2720      	movs	r7, #32
 8002222:	f04f 4100 	mov.w	r1, #2147483648	; 0x80000000
 8002226:	4563      	cmp	r3, ip
 8002228:	eb01 000e 	add.w	r0, r1, lr
 800222c:	dc02      	bgt.n	8002234 <__ieee754_sqrt+0xc4>
 800222e:	d113      	bne.n	8002258 <__ieee754_sqrt+0xe8>
 8002230:	4290      	cmp	r0, r2
 8002232:	d811      	bhi.n	8002258 <__ieee754_sqrt+0xe8>
 8002234:	2800      	cmp	r0, #0
 8002236:	eb00 0e01 	add.w	lr, r0, r1
 800223a:	da57      	bge.n	80022ec <__ieee754_sqrt+0x17c>
 800223c:	f1be 0f00 	cmp.w	lr, #0
 8002240:	db54      	blt.n	80022ec <__ieee754_sqrt+0x17c>
 8002242:	f10c 0801 	add.w	r8, ip, #1
 8002246:	eba3 030c 	sub.w	r3, r3, ip
 800224a:	4290      	cmp	r0, r2
 800224c:	bf88      	it	hi
 800224e:	f103 33ff 	addhi.w	r3, r3, #4294967295	; 0xffffffff
 8002252:	1a12      	subs	r2, r2, r0
 8002254:	440c      	add	r4, r1
 8002256:	46c4      	mov	ip, r8
 8002258:	005b      	lsls	r3, r3, #1
 800225a:	3f01      	subs	r7, #1
 800225c:	eb03 73d2 	add.w	r3, r3, r2, lsr #31
 8002260:	ea4f 0151 	mov.w	r1, r1, lsr #1
 8002264:	ea4f 0242 	mov.w	r2, r2, lsl #1
 8002268:	d1dd      	bne.n	8002226 <__ieee754_sqrt+0xb6>
 800226a:	4313      	orrs	r3, r2
 800226c:	d01b      	beq.n	80022a6 <__ieee754_sqrt+0x136>
 800226e:	f8df a0ac 	ldr.w	sl, [pc, #172]	; 800231c <__ieee754_sqrt+0x1ac>
 8002272:	f8df b0ac 	ldr.w	fp, [pc, #172]	; 8002320 <__ieee754_sqrt+0x1b0>
 8002276:	e9da 0100 	ldrd	r0, r1, [sl]
 800227a:	e9db 2300 	ldrd	r2, r3, [fp]
 800227e:	f7fd ffaf 	bl	80001e0 <__aeabi_dsub>
 8002282:	e9da 8900 	ldrd	r8, r9, [sl]
 8002286:	4602      	mov	r2, r0
 8002288:	460b      	mov	r3, r1
 800228a:	4640      	mov	r0, r8
 800228c:	4649      	mov	r1, r9
 800228e:	f7fe fbdb 	bl	8000a48 <__aeabi_dcmple>
 8002292:	b140      	cbz	r0, 80022a6 <__ieee754_sqrt+0x136>
 8002294:	f1b4 3fff 	cmp.w	r4, #4294967295	; 0xffffffff
 8002298:	e9da 0100 	ldrd	r0, r1, [sl]
 800229c:	e9db 2300 	ldrd	r2, r3, [fp]
 80022a0:	d126      	bne.n	80022f0 <__ieee754_sqrt+0x180>
 80022a2:	3501      	adds	r5, #1
 80022a4:	463c      	mov	r4, r7
 80022a6:	106a      	asrs	r2, r5, #1
 80022a8:	0863      	lsrs	r3, r4, #1
 80022aa:	07e9      	lsls	r1, r5, #31
 80022ac:	f102 527f 	add.w	r2, r2, #1069547520	; 0x3fc00000
 80022b0:	f502 1200 	add.w	r2, r2, #2097152	; 0x200000
 80022b4:	bf48      	it	mi
 80022b6:	f043 4300 	orrmi.w	r3, r3, #2147483648	; 0x80000000
 80022ba:	eb02 5506 	add.w	r5, r2, r6, lsl #20
 80022be:	461c      	mov	r4, r3
 80022c0:	e76d      	b.n	800219e <__ieee754_sqrt+0x2e>
 80022c2:	0ad3      	lsrs	r3, r2, #11
 80022c4:	3815      	subs	r0, #21
 80022c6:	0552      	lsls	r2, r2, #21
 80022c8:	2b00      	cmp	r3, #0
 80022ca:	d0fa      	beq.n	80022c2 <__ieee754_sqrt+0x152>
 80022cc:	02dc      	lsls	r4, r3, #11
 80022ce:	d50a      	bpl.n	80022e6 <__ieee754_sqrt+0x176>
 80022d0:	f1c1 0420 	rsb	r4, r1, #32
 80022d4:	fa22 f404 	lsr.w	r4, r2, r4
 80022d8:	1e4d      	subs	r5, r1, #1
 80022da:	408a      	lsls	r2, r1
 80022dc:	4323      	orrs	r3, r4
 80022de:	1b41      	subs	r1, r0, r5
 80022e0:	e772      	b.n	80021c8 <__ieee754_sqrt+0x58>
 80022e2:	4608      	mov	r0, r1
 80022e4:	e7f0      	b.n	80022c8 <__ieee754_sqrt+0x158>
 80022e6:	005b      	lsls	r3, r3, #1
 80022e8:	3101      	adds	r1, #1
 80022ea:	e7ef      	b.n	80022cc <__ieee754_sqrt+0x15c>
 80022ec:	46e0      	mov	r8, ip
 80022ee:	e7aa      	b.n	8002246 <__ieee754_sqrt+0xd6>
 80022f0:	f7fd ff78 	bl	80001e4 <__adddf3>
 80022f4:	e9da 8900 	ldrd	r8, r9, [sl]
 80022f8:	4602      	mov	r2, r0
 80022fa:	460b      	mov	r3, r1
 80022fc:	4640      	mov	r0, r8
 80022fe:	4649      	mov	r1, r9
 8002300:	f7fe fb98 	bl	8000a34 <__aeabi_dcmplt>
 8002304:	b120      	cbz	r0, 8002310 <__ieee754_sqrt+0x1a0>
 8002306:	1ca0      	adds	r0, r4, #2
 8002308:	bf08      	it	eq
 800230a:	3501      	addeq	r5, #1
 800230c:	3402      	adds	r4, #2
 800230e:	e7ca      	b.n	80022a6 <__ieee754_sqrt+0x136>
 8002310:	3401      	adds	r4, #1
 8002312:	f024 0401 	bic.w	r4, r4, #1
 8002316:	e7c6      	b.n	80022a6 <__ieee754_sqrt+0x136>
 8002318:	7ff00000 	.word	0x7ff00000
 800231c:	20000050 	.word	0x20000050
 8002320:	20000058 	.word	0x20000058
 8002324:	00000000 	.word	0x00000000

08002328 <nan>:
 8002328:	ed9f 0b01 	vldr	d0, [pc, #4]	; 8002330 <nan+0x8>
 800232c:	4770      	bx	lr
 800232e:	bf00      	nop
 8002330:	00000000 	.word	0x00000000
 8002334:	7ff80000 	.word	0x7ff80000

08002338 <__ieee754_pow>:
 8002338:	e92d 4ff0 	stmdb	sp!, {r4, r5, r6, r7, r8, r9, sl, fp, lr}
 800233c:	ed2d 8b06 	vpush	{d8-d10}
 8002340:	b089      	sub	sp, #36	; 0x24
 8002342:	ed8d 1b00 	vstr	d1, [sp]
 8002346:	e9dd 2900 	ldrd	r2, r9, [sp]
 800234a:	f029 4800 	bic.w	r8, r9, #2147483648	; 0x80000000
 800234e:	ea58 0102 	orrs.w	r1, r8, r2
 8002352:	ec57 6b10 	vmov	r6, r7, d0
 8002356:	d115      	bne.n	8002384 <__ieee754_pow+0x4c>
 8002358:	19b3      	adds	r3, r6, r6
 800235a:	f487 2200 	eor.w	r2, r7, #524288	; 0x80000
 800235e:	4152      	adcs	r2, r2
 8002360:	4299      	cmp	r1, r3
 8002362:	4b89      	ldr	r3, [pc, #548]	; (8002588 <__ieee754_pow+0x250>)
 8002364:	4193      	sbcs	r3, r2
 8002366:	f080 84d1 	bcs.w	8002d0c <__ieee754_pow+0x9d4>
 800236a:	e9dd 2300 	ldrd	r2, r3, [sp]
 800236e:	4630      	mov	r0, r6
 8002370:	4639      	mov	r1, r7
 8002372:	f7fd ff37 	bl	80001e4 <__adddf3>
 8002376:	ec41 0b10 	vmov	d0, r0, r1
 800237a:	b009      	add	sp, #36	; 0x24
 800237c:	ecbd 8b06 	vpop	{d8-d10}
 8002380:	e8bd 8ff0 	ldmia.w	sp!, {r4, r5, r6, r7, r8, r9, sl, fp, pc}
 8002384:	4b81      	ldr	r3, [pc, #516]	; (800258c <__ieee754_pow+0x254>)
 8002386:	f027 4400 	bic.w	r4, r7, #2147483648	; 0x80000000
 800238a:	429c      	cmp	r4, r3
 800238c:	ee10 aa10 	vmov	sl, s0
 8002390:	463d      	mov	r5, r7
 8002392:	dc06      	bgt.n	80023a2 <__ieee754_pow+0x6a>
 8002394:	d101      	bne.n	800239a <__ieee754_pow+0x62>
 8002396:	2e00      	cmp	r6, #0
 8002398:	d1e7      	bne.n	800236a <__ieee754_pow+0x32>
 800239a:	4598      	cmp	r8, r3
 800239c:	dc01      	bgt.n	80023a2 <__ieee754_pow+0x6a>
 800239e:	d10f      	bne.n	80023c0 <__ieee754_pow+0x88>
 80023a0:	b172      	cbz	r2, 80023c0 <__ieee754_pow+0x88>
 80023a2:	f105 4540 	add.w	r5, r5, #3221225472	; 0xc0000000
 80023a6:	f505 1580 	add.w	r5, r5, #1048576	; 0x100000
 80023aa:	ea55 050a 	orrs.w	r5, r5, sl
 80023ae:	d1dc      	bne.n	800236a <__ieee754_pow+0x32>
 80023b0:	e9dd 3200 	ldrd	r3, r2, [sp]
 80023b4:	18db      	adds	r3, r3, r3
 80023b6:	f482 2200 	eor.w	r2, r2, #524288	; 0x80000
 80023ba:	4152      	adcs	r2, r2
 80023bc:	429d      	cmp	r5, r3
 80023be:	e7d0      	b.n	8002362 <__ieee754_pow+0x2a>
 80023c0:	2d00      	cmp	r5, #0
 80023c2:	da3b      	bge.n	800243c <__ieee754_pow+0x104>
 80023c4:	4b72      	ldr	r3, [pc, #456]	; (8002590 <__ieee754_pow+0x258>)
 80023c6:	4598      	cmp	r8, r3
 80023c8:	dc51      	bgt.n	800246e <__ieee754_pow+0x136>
 80023ca:	f1a3 7354 	sub.w	r3, r3, #55574528	; 0x3500000
 80023ce:	4598      	cmp	r8, r3
 80023d0:	f340 84ab 	ble.w	8002d2a <__ieee754_pow+0x9f2>
 80023d4:	ea4f 5328 	mov.w	r3, r8, asr #20
 80023d8:	f2a3 33ff 	subw	r3, r3, #1023	; 0x3ff
 80023dc:	2b14      	cmp	r3, #20
 80023de:	dd0f      	ble.n	8002400 <__ieee754_pow+0xc8>
 80023e0:	f1c3 0334 	rsb	r3, r3, #52	; 0x34
 80023e4:	fa22 f103 	lsr.w	r1, r2, r3
 80023e8:	fa01 f303 	lsl.w	r3, r1, r3
 80023ec:	4293      	cmp	r3, r2
 80023ee:	f040 849c 	bne.w	8002d2a <__ieee754_pow+0x9f2>
 80023f2:	f001 0101 	and.w	r1, r1, #1
 80023f6:	f1c1 0302 	rsb	r3, r1, #2
 80023fa:	9304      	str	r3, [sp, #16]
 80023fc:	b182      	cbz	r2, 8002420 <__ieee754_pow+0xe8>
 80023fe:	e05f      	b.n	80024c0 <__ieee754_pow+0x188>
 8002400:	2a00      	cmp	r2, #0
 8002402:	d15b      	bne.n	80024bc <__ieee754_pow+0x184>
 8002404:	f1c3 0314 	rsb	r3, r3, #20
 8002408:	fa48 f103 	asr.w	r1, r8, r3
 800240c:	fa01 f303 	lsl.w	r3, r1, r3
 8002410:	4543      	cmp	r3, r8
 8002412:	f040 8487 	bne.w	8002d24 <__ieee754_pow+0x9ec>
 8002416:	f001 0101 	and.w	r1, r1, #1
 800241a:	f1c1 0302 	rsb	r3, r1, #2
 800241e:	9304      	str	r3, [sp, #16]
 8002420:	4b5c      	ldr	r3, [pc, #368]	; (8002594 <__ieee754_pow+0x25c>)
 8002422:	4598      	cmp	r8, r3
 8002424:	d132      	bne.n	800248c <__ieee754_pow+0x154>
 8002426:	f1b9 0f00 	cmp.w	r9, #0
 800242a:	f280 8477 	bge.w	8002d1c <__ieee754_pow+0x9e4>
 800242e:	4959      	ldr	r1, [pc, #356]	; (8002594 <__ieee754_pow+0x25c>)
 8002430:	4632      	mov	r2, r6
 8002432:	463b      	mov	r3, r7
 8002434:	2000      	movs	r0, #0
 8002436:	f7fe f9b5 	bl	80007a4 <__aeabi_ddiv>
 800243a:	e79c      	b.n	8002376 <__ieee754_pow+0x3e>
 800243c:	2300      	movs	r3, #0
 800243e:	9304      	str	r3, [sp, #16]
 8002440:	2a00      	cmp	r2, #0
 8002442:	d13d      	bne.n	80024c0 <__ieee754_pow+0x188>
 8002444:	4b51      	ldr	r3, [pc, #324]	; (800258c <__ieee754_pow+0x254>)
 8002446:	4598      	cmp	r8, r3
 8002448:	d1ea      	bne.n	8002420 <__ieee754_pow+0xe8>
 800244a:	f104 4340 	add.w	r3, r4, #3221225472	; 0xc0000000
 800244e:	f503 1380 	add.w	r3, r3, #1048576	; 0x100000
 8002452:	ea53 030a 	orrs.w	r3, r3, sl
 8002456:	f000 8459 	beq.w	8002d0c <__ieee754_pow+0x9d4>
 800245a:	4b4f      	ldr	r3, [pc, #316]	; (8002598 <__ieee754_pow+0x260>)
 800245c:	429c      	cmp	r4, r3
 800245e:	dd08      	ble.n	8002472 <__ieee754_pow+0x13a>
 8002460:	f1b9 0f00 	cmp.w	r9, #0
 8002464:	f2c0 8456 	blt.w	8002d14 <__ieee754_pow+0x9dc>
 8002468:	e9dd 0100 	ldrd	r0, r1, [sp]
 800246c:	e783      	b.n	8002376 <__ieee754_pow+0x3e>
 800246e:	2302      	movs	r3, #2
 8002470:	e7e5      	b.n	800243e <__ieee754_pow+0x106>
 8002472:	f1b9 0f00 	cmp.w	r9, #0
 8002476:	f04f 0000 	mov.w	r0, #0
 800247a:	f04f 0100 	mov.w	r1, #0
 800247e:	f6bf af7a 	bge.w	8002376 <__ieee754_pow+0x3e>
 8002482:	e9dd 0300 	ldrd	r0, r3, [sp]
 8002486:	f103 4100 	add.w	r1, r3, #2147483648	; 0x80000000
 800248a:	e774      	b.n	8002376 <__ieee754_pow+0x3e>
 800248c:	f1b9 4f80 	cmp.w	r9, #1073741824	; 0x40000000
 8002490:	d106      	bne.n	80024a0 <__ieee754_pow+0x168>
 8002492:	4632      	mov	r2, r6
 8002494:	463b      	mov	r3, r7
 8002496:	4630      	mov	r0, r6
 8002498:	4639      	mov	r1, r7
 800249a:	f7fe f859 	bl	8000550 <__aeabi_dmul>
 800249e:	e76a      	b.n	8002376 <__ieee754_pow+0x3e>
 80024a0:	4b3e      	ldr	r3, [pc, #248]	; (800259c <__ieee754_pow+0x264>)
 80024a2:	4599      	cmp	r9, r3
 80024a4:	d10c      	bne.n	80024c0 <__ieee754_pow+0x188>
 80024a6:	2d00      	cmp	r5, #0
 80024a8:	db0a      	blt.n	80024c0 <__ieee754_pow+0x188>
 80024aa:	ec47 6b10 	vmov	d0, r6, r7
 80024ae:	b009      	add	sp, #36	; 0x24
 80024b0:	ecbd 8b06 	vpop	{d8-d10}
 80024b4:	e8bd 4ff0 	ldmia.w	sp!, {r4, r5, r6, r7, r8, r9, sl, fp, lr}
 80024b8:	f7ff be5a 	b.w	8002170 <__ieee754_sqrt>
 80024bc:	2300      	movs	r3, #0
 80024be:	9304      	str	r3, [sp, #16]
 80024c0:	ec47 6b10 	vmov	d0, r6, r7
 80024c4:	f7ff fe40 	bl	8002148 <fabs>
 80024c8:	ec51 0b10 	vmov	r0, r1, d0
 80024cc:	f1ba 0f00 	cmp.w	sl, #0
 80024d0:	d129      	bne.n	8002526 <__ieee754_pow+0x1ee>
 80024d2:	b124      	cbz	r4, 80024de <__ieee754_pow+0x1a6>
 80024d4:	4b2f      	ldr	r3, [pc, #188]	; (8002594 <__ieee754_pow+0x25c>)
 80024d6:	f025 4240 	bic.w	r2, r5, #3221225472	; 0xc0000000
 80024da:	429a      	cmp	r2, r3
 80024dc:	d123      	bne.n	8002526 <__ieee754_pow+0x1ee>
 80024de:	f1b9 0f00 	cmp.w	r9, #0
 80024e2:	da05      	bge.n	80024f0 <__ieee754_pow+0x1b8>
 80024e4:	4602      	mov	r2, r0
 80024e6:	460b      	mov	r3, r1
 80024e8:	2000      	movs	r0, #0
 80024ea:	492a      	ldr	r1, [pc, #168]	; (8002594 <__ieee754_pow+0x25c>)
 80024ec:	f7fe f95a 	bl	80007a4 <__aeabi_ddiv>
 80024f0:	2d00      	cmp	r5, #0
 80024f2:	f6bf af40 	bge.w	8002376 <__ieee754_pow+0x3e>
 80024f6:	9b04      	ldr	r3, [sp, #16]
 80024f8:	f104 4440 	add.w	r4, r4, #3221225472	; 0xc0000000
 80024fc:	f504 1480 	add.w	r4, r4, #1048576	; 0x100000
 8002500:	431c      	orrs	r4, r3
 8002502:	d108      	bne.n	8002516 <__ieee754_pow+0x1de>
 8002504:	4602      	mov	r2, r0
 8002506:	460b      	mov	r3, r1
 8002508:	4610      	mov	r0, r2
 800250a:	4619      	mov	r1, r3
 800250c:	f7fd fe68 	bl	80001e0 <__aeabi_dsub>
 8002510:	4602      	mov	r2, r0
 8002512:	460b      	mov	r3, r1
 8002514:	e78f      	b.n	8002436 <__ieee754_pow+0xfe>
 8002516:	9b04      	ldr	r3, [sp, #16]
 8002518:	2b01      	cmp	r3, #1
 800251a:	f47f af2c 	bne.w	8002376 <__ieee754_pow+0x3e>
 800251e:	f101 4300 	add.w	r3, r1, #2147483648	; 0x80000000
 8002522:	4619      	mov	r1, r3
 8002524:	e727      	b.n	8002376 <__ieee754_pow+0x3e>
 8002526:	0feb      	lsrs	r3, r5, #31
 8002528:	3b01      	subs	r3, #1
 800252a:	9306      	str	r3, [sp, #24]
 800252c:	9a06      	ldr	r2, [sp, #24]
 800252e:	9b04      	ldr	r3, [sp, #16]
 8002530:	4313      	orrs	r3, r2
 8002532:	d102      	bne.n	800253a <__ieee754_pow+0x202>
 8002534:	4632      	mov	r2, r6
 8002536:	463b      	mov	r3, r7
 8002538:	e7e6      	b.n	8002508 <__ieee754_pow+0x1d0>
 800253a:	4b19      	ldr	r3, [pc, #100]	; (80025a0 <__ieee754_pow+0x268>)
 800253c:	4598      	cmp	r8, r3
 800253e:	f340 80fb 	ble.w	8002738 <__ieee754_pow+0x400>
 8002542:	f103 7304 	add.w	r3, r3, #34603008	; 0x2100000
 8002546:	4598      	cmp	r8, r3
 8002548:	4b13      	ldr	r3, [pc, #76]	; (8002598 <__ieee754_pow+0x260>)
 800254a:	dd0c      	ble.n	8002566 <__ieee754_pow+0x22e>
 800254c:	429c      	cmp	r4, r3
 800254e:	dc0f      	bgt.n	8002570 <__ieee754_pow+0x238>
 8002550:	f1b9 0f00 	cmp.w	r9, #0
 8002554:	da0f      	bge.n	8002576 <__ieee754_pow+0x23e>
 8002556:	2000      	movs	r0, #0
 8002558:	b009      	add	sp, #36	; 0x24
 800255a:	ecbd 8b06 	vpop	{d8-d10}
 800255e:	e8bd 4ff0 	ldmia.w	sp!, {r4, r5, r6, r7, r8, r9, sl, fp, lr}
 8002562:	f000 bc3a 	b.w	8002dda <__math_oflow>
 8002566:	429c      	cmp	r4, r3
 8002568:	dbf2      	blt.n	8002550 <__ieee754_pow+0x218>
 800256a:	4b0a      	ldr	r3, [pc, #40]	; (8002594 <__ieee754_pow+0x25c>)
 800256c:	429c      	cmp	r4, r3
 800256e:	dd19      	ble.n	80025a4 <__ieee754_pow+0x26c>
 8002570:	f1b9 0f00 	cmp.w	r9, #0
 8002574:	dcef      	bgt.n	8002556 <__ieee754_pow+0x21e>
 8002576:	2000      	movs	r0, #0
 8002578:	b009      	add	sp, #36	; 0x24
 800257a:	ecbd 8b06 	vpop	{d8-d10}
 800257e:	e8bd 4ff0 	ldmia.w	sp!, {r4, r5, r6, r7, r8, r9, sl, fp, lr}
 8002582:	f000 bc21 	b.w	8002dc8 <__math_uflow>
 8002586:	bf00      	nop
 8002588:	fff00000 	.word	0xfff00000
 800258c:	7ff00000 	.word	0x7ff00000
 8002590:	433fffff 	.word	0x433fffff
 8002594:	3ff00000 	.word	0x3ff00000
 8002598:	3fefffff 	.word	0x3fefffff
 800259c:	3fe00000 	.word	0x3fe00000
 80025a0:	41e00000 	.word	0x41e00000
 80025a4:	4b60      	ldr	r3, [pc, #384]	; (8002728 <__ieee754_pow+0x3f0>)
 80025a6:	2200      	movs	r2, #0
 80025a8:	f7fd fe1a 	bl	80001e0 <__aeabi_dsub>
 80025ac:	a354      	add	r3, pc, #336	; (adr r3, 8002700 <__ieee754_pow+0x3c8>)
 80025ae:	e9d3 2300 	ldrd	r2, r3, [r3]
 80025b2:	4604      	mov	r4, r0
 80025b4:	460d      	mov	r5, r1
 80025b6:	f7fd ffcb 	bl	8000550 <__aeabi_dmul>
 80025ba:	a353      	add	r3, pc, #332	; (adr r3, 8002708 <__ieee754_pow+0x3d0>)
 80025bc:	e9d3 2300 	ldrd	r2, r3, [r3]
 80025c0:	4606      	mov	r6, r0
 80025c2:	460f      	mov	r7, r1
 80025c4:	4620      	mov	r0, r4
 80025c6:	4629      	mov	r1, r5
 80025c8:	f7fd ffc2 	bl	8000550 <__aeabi_dmul>
 80025cc:	4b57      	ldr	r3, [pc, #348]	; (800272c <__ieee754_pow+0x3f4>)
 80025ce:	4682      	mov	sl, r0
 80025d0:	468b      	mov	fp, r1
 80025d2:	2200      	movs	r2, #0
 80025d4:	4620      	mov	r0, r4
 80025d6:	4629      	mov	r1, r5
 80025d8:	f7fd ffba 	bl	8000550 <__aeabi_dmul>
 80025dc:	4602      	mov	r2, r0
 80025de:	460b      	mov	r3, r1
 80025e0:	a14b      	add	r1, pc, #300	; (adr r1, 8002710 <__ieee754_pow+0x3d8>)
 80025e2:	e9d1 0100 	ldrd	r0, r1, [r1]
 80025e6:	f7fd fdfb 	bl	80001e0 <__aeabi_dsub>
 80025ea:	4622      	mov	r2, r4
 80025ec:	462b      	mov	r3, r5
 80025ee:	f7fd ffaf 	bl	8000550 <__aeabi_dmul>
 80025f2:	4602      	mov	r2, r0
 80025f4:	460b      	mov	r3, r1
 80025f6:	2000      	movs	r0, #0
 80025f8:	494d      	ldr	r1, [pc, #308]	; (8002730 <__ieee754_pow+0x3f8>)
 80025fa:	f7fd fdf1 	bl	80001e0 <__aeabi_dsub>
 80025fe:	4622      	mov	r2, r4
 8002600:	4680      	mov	r8, r0
 8002602:	4689      	mov	r9, r1
 8002604:	462b      	mov	r3, r5
 8002606:	4620      	mov	r0, r4
 8002608:	4629      	mov	r1, r5
 800260a:	f7fd ffa1 	bl	8000550 <__aeabi_dmul>
 800260e:	4602      	mov	r2, r0
 8002610:	460b      	mov	r3, r1
 8002612:	4640      	mov	r0, r8
 8002614:	4649      	mov	r1, r9
 8002616:	f7fd ff9b 	bl	8000550 <__aeabi_dmul>
 800261a:	a33f      	add	r3, pc, #252	; (adr r3, 8002718 <__ieee754_pow+0x3e0>)
 800261c:	e9d3 2300 	ldrd	r2, r3, [r3]
 8002620:	f7fd ff96 	bl	8000550 <__aeabi_dmul>
 8002624:	4602      	mov	r2, r0
 8002626:	460b      	mov	r3, r1
 8002628:	4650      	mov	r0, sl
 800262a:	4659      	mov	r1, fp
 800262c:	f7fd fdd8 	bl	80001e0 <__aeabi_dsub>
 8002630:	4602      	mov	r2, r0
 8002632:	460b      	mov	r3, r1
 8002634:	4680      	mov	r8, r0
 8002636:	4689      	mov	r9, r1
 8002638:	4630      	mov	r0, r6
 800263a:	4639      	mov	r1, r7
 800263c:	f7fd fdd2 	bl	80001e4 <__adddf3>
 8002640:	2000      	movs	r0, #0
 8002642:	4632      	mov	r2, r6
 8002644:	463b      	mov	r3, r7
 8002646:	4604      	mov	r4, r0
 8002648:	460d      	mov	r5, r1
 800264a:	f7fd fdc9 	bl	80001e0 <__aeabi_dsub>
 800264e:	4602      	mov	r2, r0
 8002650:	460b      	mov	r3, r1
 8002652:	4640      	mov	r0, r8
 8002654:	4649      	mov	r1, r9
 8002656:	f7fd fdc3 	bl	80001e0 <__aeabi_dsub>
 800265a:	9b04      	ldr	r3, [sp, #16]
 800265c:	9a06      	ldr	r2, [sp, #24]
 800265e:	3b01      	subs	r3, #1
 8002660:	4313      	orrs	r3, r2
 8002662:	4682      	mov	sl, r0
 8002664:	468b      	mov	fp, r1
 8002666:	f040 81e7 	bne.w	8002a38 <__ieee754_pow+0x700>
 800266a:	ed9f 7b2d 	vldr	d7, [pc, #180]	; 8002720 <__ieee754_pow+0x3e8>
 800266e:	eeb0 8a47 	vmov.f32	s16, s14
 8002672:	eef0 8a67 	vmov.f32	s17, s15
 8002676:	e9dd 6700 	ldrd	r6, r7, [sp]
 800267a:	2600      	movs	r6, #0
 800267c:	4632      	mov	r2, r6
 800267e:	463b      	mov	r3, r7
 8002680:	e9dd 0100 	ldrd	r0, r1, [sp]
 8002684:	f7fd fdac 	bl	80001e0 <__aeabi_dsub>
 8002688:	4622      	mov	r2, r4
 800268a:	462b      	mov	r3, r5
 800268c:	f7fd ff60 	bl	8000550 <__aeabi_dmul>
 8002690:	e9dd 2300 	ldrd	r2, r3, [sp]
 8002694:	4680      	mov	r8, r0
 8002696:	4689      	mov	r9, r1
 8002698:	4650      	mov	r0, sl
 800269a:	4659      	mov	r1, fp
 800269c:	f7fd ff58 	bl	8000550 <__aeabi_dmul>
 80026a0:	4602      	mov	r2, r0
 80026a2:	460b      	mov	r3, r1
 80026a4:	4640      	mov	r0, r8
 80026a6:	4649      	mov	r1, r9
 80026a8:	f7fd fd9c 	bl	80001e4 <__adddf3>
 80026ac:	4632      	mov	r2, r6
 80026ae:	463b      	mov	r3, r7
 80026b0:	4680      	mov	r8, r0
 80026b2:	4689      	mov	r9, r1
 80026b4:	4620      	mov	r0, r4
 80026b6:	4629      	mov	r1, r5
 80026b8:	f7fd ff4a 	bl	8000550 <__aeabi_dmul>
 80026bc:	460b      	mov	r3, r1
 80026be:	4604      	mov	r4, r0
 80026c0:	460d      	mov	r5, r1
 80026c2:	4602      	mov	r2, r0
 80026c4:	4649      	mov	r1, r9
 80026c6:	4640      	mov	r0, r8
 80026c8:	f7fd fd8c 	bl	80001e4 <__adddf3>
 80026cc:	4b19      	ldr	r3, [pc, #100]	; (8002734 <__ieee754_pow+0x3fc>)
 80026ce:	4299      	cmp	r1, r3
 80026d0:	ec45 4b19 	vmov	d9, r4, r5
 80026d4:	4606      	mov	r6, r0
 80026d6:	460f      	mov	r7, r1
 80026d8:	468b      	mov	fp, r1
 80026da:	f340 82f0 	ble.w	8002cbe <__ieee754_pow+0x986>
 80026de:	f101 433f 	add.w	r3, r1, #3204448256	; 0xbf000000
 80026e2:	f503 03e0 	add.w	r3, r3, #7340032	; 0x700000
 80026e6:	4303      	orrs	r3, r0
 80026e8:	f000 81e4 	beq.w	8002ab4 <__ieee754_pow+0x77c>
 80026ec:	ec51 0b18 	vmov	r0, r1, d8
 80026f0:	2200      	movs	r2, #0
 80026f2:	2300      	movs	r3, #0
 80026f4:	f7fe f99e 	bl	8000a34 <__aeabi_dcmplt>
 80026f8:	3800      	subs	r0, #0
 80026fa:	bf18      	it	ne
 80026fc:	2001      	movne	r0, #1
 80026fe:	e72b      	b.n	8002558 <__ieee754_pow+0x220>
 8002700:	60000000 	.word	0x60000000
 8002704:	3ff71547 	.word	0x3ff71547
 8002708:	f85ddf44 	.word	0xf85ddf44
 800270c:	3e54ae0b 	.word	0x3e54ae0b
 8002710:	55555555 	.word	0x55555555
 8002714:	3fd55555 	.word	0x3fd55555
 8002718:	652b82fe 	.word	0x652b82fe
 800271c:	3ff71547 	.word	0x3ff71547
 8002720:	00000000 	.word	0x00000000
 8002724:	bff00000 	.word	0xbff00000
 8002728:	3ff00000 	.word	0x3ff00000
 800272c:	3fd00000 	.word	0x3fd00000
 8002730:	3fe00000 	.word	0x3fe00000
 8002734:	408fffff 	.word	0x408fffff
 8002738:	4bd5      	ldr	r3, [pc, #852]	; (8002a90 <__ieee754_pow+0x758>)
 800273a:	402b      	ands	r3, r5
 800273c:	2200      	movs	r2, #0
 800273e:	b92b      	cbnz	r3, 800274c <__ieee754_pow+0x414>
 8002740:	4bd4      	ldr	r3, [pc, #848]	; (8002a94 <__ieee754_pow+0x75c>)
 8002742:	f7fd ff05 	bl	8000550 <__aeabi_dmul>
 8002746:	f06f 0234 	mvn.w	r2, #52	; 0x34
 800274a:	460c      	mov	r4, r1
 800274c:	1523      	asrs	r3, r4, #20
 800274e:	f2a3 33ff 	subw	r3, r3, #1023	; 0x3ff
 8002752:	4413      	add	r3, r2
 8002754:	9305      	str	r3, [sp, #20]
 8002756:	4bd0      	ldr	r3, [pc, #832]	; (8002a98 <__ieee754_pow+0x760>)
 8002758:	f3c4 0413 	ubfx	r4, r4, #0, #20
 800275c:	f044 557f 	orr.w	r5, r4, #1069547520	; 0x3fc00000
 8002760:	429c      	cmp	r4, r3
 8002762:	f445 1540 	orr.w	r5, r5, #3145728	; 0x300000
 8002766:	dd08      	ble.n	800277a <__ieee754_pow+0x442>
 8002768:	4bcc      	ldr	r3, [pc, #816]	; (8002a9c <__ieee754_pow+0x764>)
 800276a:	429c      	cmp	r4, r3
 800276c:	f340 8162 	ble.w	8002a34 <__ieee754_pow+0x6fc>
 8002770:	9b05      	ldr	r3, [sp, #20]
 8002772:	3301      	adds	r3, #1
 8002774:	9305      	str	r3, [sp, #20]
 8002776:	f5a5 1580 	sub.w	r5, r5, #1048576	; 0x100000
 800277a:	2400      	movs	r4, #0
 800277c:	00e3      	lsls	r3, r4, #3
 800277e:	9307      	str	r3, [sp, #28]
 8002780:	4bc7      	ldr	r3, [pc, #796]	; (8002aa0 <__ieee754_pow+0x768>)
 8002782:	eb03 03c4 	add.w	r3, r3, r4, lsl #3
 8002786:	ed93 7b00 	vldr	d7, [r3]
 800278a:	4629      	mov	r1, r5
 800278c:	ec53 2b17 	vmov	r2, r3, d7
 8002790:	eeb0 9a47 	vmov.f32	s18, s14
 8002794:	eef0 9a67 	vmov.f32	s19, s15
 8002798:	4682      	mov	sl, r0
 800279a:	f7fd fd21 	bl	80001e0 <__aeabi_dsub>
 800279e:	4652      	mov	r2, sl
 80027a0:	4606      	mov	r6, r0
 80027a2:	460f      	mov	r7, r1
 80027a4:	462b      	mov	r3, r5
 80027a6:	ec51 0b19 	vmov	r0, r1, d9
 80027aa:	f7fd fd1b 	bl	80001e4 <__adddf3>
 80027ae:	4602      	mov	r2, r0
 80027b0:	460b      	mov	r3, r1
 80027b2:	2000      	movs	r0, #0
 80027b4:	49bb      	ldr	r1, [pc, #748]	; (8002aa4 <__ieee754_pow+0x76c>)
 80027b6:	f7fd fff5 	bl	80007a4 <__aeabi_ddiv>
 80027ba:	ec41 0b1a 	vmov	d10, r0, r1
 80027be:	4602      	mov	r2, r0
 80027c0:	460b      	mov	r3, r1
 80027c2:	4630      	mov	r0, r6
 80027c4:	4639      	mov	r1, r7
 80027c6:	f7fd fec3 	bl	8000550 <__aeabi_dmul>
 80027ca:	2300      	movs	r3, #0
 80027cc:	e9cd 0102 	strd	r0, r1, [sp, #8]
 80027d0:	9302      	str	r3, [sp, #8]
 80027d2:	e9dd 8902 	ldrd	r8, r9, [sp, #8]
 80027d6:	46ab      	mov	fp, r5
 80027d8:	106d      	asrs	r5, r5, #1
 80027da:	f045 5500 	orr.w	r5, r5, #536870912	; 0x20000000
 80027de:	f505 2500 	add.w	r5, r5, #524288	; 0x80000
 80027e2:	ec41 0b18 	vmov	d8, r0, r1
 80027e6:	eb05 4384 	add.w	r3, r5, r4, lsl #18
 80027ea:	2200      	movs	r2, #0
 80027ec:	4640      	mov	r0, r8
 80027ee:	4649      	mov	r1, r9
 80027f0:	4614      	mov	r4, r2
 80027f2:	461d      	mov	r5, r3
 80027f4:	f7fd feac 	bl	8000550 <__aeabi_dmul>
 80027f8:	4602      	mov	r2, r0
 80027fa:	460b      	mov	r3, r1
 80027fc:	4630      	mov	r0, r6
 80027fe:	4639      	mov	r1, r7
 8002800:	f7fd fcee 	bl	80001e0 <__aeabi_dsub>
 8002804:	ec53 2b19 	vmov	r2, r3, d9
 8002808:	4606      	mov	r6, r0
 800280a:	460f      	mov	r7, r1
 800280c:	4620      	mov	r0, r4
 800280e:	4629      	mov	r1, r5
 8002810:	f7fd fce6 	bl	80001e0 <__aeabi_dsub>
 8002814:	4602      	mov	r2, r0
 8002816:	460b      	mov	r3, r1
 8002818:	4650      	mov	r0, sl
 800281a:	4659      	mov	r1, fp
 800281c:	f7fd fce0 	bl	80001e0 <__aeabi_dsub>
 8002820:	4642      	mov	r2, r8
 8002822:	464b      	mov	r3, r9
 8002824:	f7fd fe94 	bl	8000550 <__aeabi_dmul>
 8002828:	4602      	mov	r2, r0
 800282a:	460b      	mov	r3, r1
 800282c:	4630      	mov	r0, r6
 800282e:	4639      	mov	r1, r7
 8002830:	f7fd fcd6 	bl	80001e0 <__aeabi_dsub>
 8002834:	ec53 2b1a 	vmov	r2, r3, d10
 8002838:	f7fd fe8a 	bl	8000550 <__aeabi_dmul>
 800283c:	ec53 2b18 	vmov	r2, r3, d8
 8002840:	ec41 0b19 	vmov	d9, r0, r1
 8002844:	ec51 0b18 	vmov	r0, r1, d8
 8002848:	f7fd fe82 	bl	8000550 <__aeabi_dmul>
 800284c:	a37c      	add	r3, pc, #496	; (adr r3, 8002a40 <__ieee754_pow+0x708>)
 800284e:	e9d3 2300 	ldrd	r2, r3, [r3]
 8002852:	4604      	mov	r4, r0
 8002854:	460d      	mov	r5, r1
 8002856:	f7fd fe7b 	bl	8000550 <__aeabi_dmul>
 800285a:	a37b      	add	r3, pc, #492	; (adr r3, 8002a48 <__ieee754_pow+0x710>)
 800285c:	e9d3 2300 	ldrd	r2, r3, [r3]
 8002860:	f7fd fcc0 	bl	80001e4 <__adddf3>
 8002864:	4622      	mov	r2, r4
 8002866:	462b      	mov	r3, r5
 8002868:	f7fd fe72 	bl	8000550 <__aeabi_dmul>
 800286c:	a378      	add	r3, pc, #480	; (adr r3, 8002a50 <__ieee754_pow+0x718>)
 800286e:	e9d3 2300 	ldrd	r2, r3, [r3]
 8002872:	f7fd fcb7 	bl	80001e4 <__adddf3>
 8002876:	4622      	mov	r2, r4
 8002878:	462b      	mov	r3, r5
 800287a:	f7fd fe69 	bl	8000550 <__aeabi_dmul>
 800287e:	a376      	add	r3, pc, #472	; (adr r3, 8002a58 <__ieee754_pow+0x720>)
 8002880:	e9d3 2300 	ldrd	r2, r3, [r3]
 8002884:	f7fd fcae 	bl	80001e4 <__adddf3>
 8002888:	4622      	mov	r2, r4
 800288a:	462b      	mov	r3, r5
 800288c:	f7fd fe60 	bl	8000550 <__aeabi_dmul>
 8002890:	a373      	add	r3, pc, #460	; (adr r3, 8002a60 <__ieee754_pow+0x728>)
 8002892:	e9d3 2300 	ldrd	r2, r3, [r3]
 8002896:	f7fd fca5 	bl	80001e4 <__adddf3>
 800289a:	4622      	mov	r2, r4
 800289c:	462b      	mov	r3, r5
 800289e:	f7fd fe57 	bl	8000550 <__aeabi_dmul>
 80028a2:	a371      	add	r3, pc, #452	; (adr r3, 8002a68 <__ieee754_pow+0x730>)
 80028a4:	e9d3 2300 	ldrd	r2, r3, [r3]
 80028a8:	f7fd fc9c 	bl	80001e4 <__adddf3>
 80028ac:	4622      	mov	r2, r4
 80028ae:	4606      	mov	r6, r0
 80028b0:	460f      	mov	r7, r1
 80028b2:	462b      	mov	r3, r5
 80028b4:	4620      	mov	r0, r4
 80028b6:	4629      	mov	r1, r5
 80028b8:	f7fd fe4a 	bl	8000550 <__aeabi_dmul>
 80028bc:	4602      	mov	r2, r0
 80028be:	460b      	mov	r3, r1
 80028c0:	4630      	mov	r0, r6
 80028c2:	4639      	mov	r1, r7
 80028c4:	f7fd fe44 	bl	8000550 <__aeabi_dmul>
 80028c8:	4642      	mov	r2, r8
 80028ca:	4604      	mov	r4, r0
 80028cc:	460d      	mov	r5, r1
 80028ce:	464b      	mov	r3, r9
 80028d0:	ec51 0b18 	vmov	r0, r1, d8
 80028d4:	f7fd fc86 	bl	80001e4 <__adddf3>
 80028d8:	ec53 2b19 	vmov	r2, r3, d9
 80028dc:	f7fd fe38 	bl	8000550 <__aeabi_dmul>
 80028e0:	4622      	mov	r2, r4
 80028e2:	462b      	mov	r3, r5
 80028e4:	f7fd fc7e 	bl	80001e4 <__adddf3>
 80028e8:	4642      	mov	r2, r8
 80028ea:	4682      	mov	sl, r0
 80028ec:	468b      	mov	fp, r1
 80028ee:	464b      	mov	r3, r9
 80028f0:	4640      	mov	r0, r8
 80028f2:	4649      	mov	r1, r9
 80028f4:	f7fd fe2c 	bl	8000550 <__aeabi_dmul>
 80028f8:	4b6b      	ldr	r3, [pc, #428]	; (8002aa8 <__ieee754_pow+0x770>)
 80028fa:	2200      	movs	r2, #0
 80028fc:	4606      	mov	r6, r0
 80028fe:	460f      	mov	r7, r1
 8002900:	f7fd fc70 	bl	80001e4 <__adddf3>
 8002904:	4652      	mov	r2, sl
 8002906:	465b      	mov	r3, fp
 8002908:	f7fd fc6c 	bl	80001e4 <__adddf3>
 800290c:	2000      	movs	r0, #0
 800290e:	4604      	mov	r4, r0
 8002910:	460d      	mov	r5, r1
 8002912:	4602      	mov	r2, r0
 8002914:	460b      	mov	r3, r1
 8002916:	4640      	mov	r0, r8
 8002918:	4649      	mov	r1, r9
 800291a:	f7fd fe19 	bl	8000550 <__aeabi_dmul>
 800291e:	4b62      	ldr	r3, [pc, #392]	; (8002aa8 <__ieee754_pow+0x770>)
 8002920:	4680      	mov	r8, r0
 8002922:	4689      	mov	r9, r1
 8002924:	2200      	movs	r2, #0
 8002926:	4620      	mov	r0, r4
 8002928:	4629      	mov	r1, r5
 800292a:	f7fd fc59 	bl	80001e0 <__aeabi_dsub>
 800292e:	4632      	mov	r2, r6
 8002930:	463b      	mov	r3, r7
 8002932:	f7fd fc55 	bl	80001e0 <__aeabi_dsub>
 8002936:	4602      	mov	r2, r0
 8002938:	460b      	mov	r3, r1
 800293a:	4650      	mov	r0, sl
 800293c:	4659      	mov	r1, fp
 800293e:	f7fd fc4f 	bl	80001e0 <__aeabi_dsub>
 8002942:	ec53 2b18 	vmov	r2, r3, d8
 8002946:	f7fd fe03 	bl	8000550 <__aeabi_dmul>
 800294a:	4622      	mov	r2, r4
 800294c:	4606      	mov	r6, r0
 800294e:	460f      	mov	r7, r1
 8002950:	462b      	mov	r3, r5
 8002952:	ec51 0b19 	vmov	r0, r1, d9
 8002956:	f7fd fdfb 	bl	8000550 <__aeabi_dmul>
 800295a:	4602      	mov	r2, r0
 800295c:	460b      	mov	r3, r1
 800295e:	4630      	mov	r0, r6
 8002960:	4639      	mov	r1, r7
 8002962:	f7fd fc3f 	bl	80001e4 <__adddf3>
 8002966:	4606      	mov	r6, r0
 8002968:	460f      	mov	r7, r1
 800296a:	4602      	mov	r2, r0
 800296c:	460b      	mov	r3, r1
 800296e:	4640      	mov	r0, r8
 8002970:	4649      	mov	r1, r9
 8002972:	f7fd fc37 	bl	80001e4 <__adddf3>
 8002976:	a33e      	add	r3, pc, #248	; (adr r3, 8002a70 <__ieee754_pow+0x738>)
 8002978:	e9d3 2300 	ldrd	r2, r3, [r3]
 800297c:	2000      	movs	r0, #0
 800297e:	4604      	mov	r4, r0
 8002980:	460d      	mov	r5, r1
 8002982:	f7fd fde5 	bl	8000550 <__aeabi_dmul>
 8002986:	4642      	mov	r2, r8
 8002988:	ec41 0b18 	vmov	d8, r0, r1
 800298c:	464b      	mov	r3, r9
 800298e:	4620      	mov	r0, r4
 8002990:	4629      	mov	r1, r5
 8002992:	f7fd fc25 	bl	80001e0 <__aeabi_dsub>
 8002996:	4602      	mov	r2, r0
 8002998:	460b      	mov	r3, r1
 800299a:	4630      	mov	r0, r6
 800299c:	4639      	mov	r1, r7
 800299e:	f7fd fc1f 	bl	80001e0 <__aeabi_dsub>
 80029a2:	a335      	add	r3, pc, #212	; (adr r3, 8002a78 <__ieee754_pow+0x740>)
 80029a4:	e9d3 2300 	ldrd	r2, r3, [r3]
 80029a8:	f7fd fdd2 	bl	8000550 <__aeabi_dmul>
 80029ac:	a334      	add	r3, pc, #208	; (adr r3, 8002a80 <__ieee754_pow+0x748>)
 80029ae:	e9d3 2300 	ldrd	r2, r3, [r3]
 80029b2:	4606      	mov	r6, r0
 80029b4:	460f      	mov	r7, r1
 80029b6:	4620      	mov	r0, r4
 80029b8:	4629      	mov	r1, r5
 80029ba:	f7fd fdc9 	bl	8000550 <__aeabi_dmul>
 80029be:	4602      	mov	r2, r0
 80029c0:	460b      	mov	r3, r1
 80029c2:	4630      	mov	r0, r6
 80029c4:	4639      	mov	r1, r7
 80029c6:	f7fd fc0d 	bl	80001e4 <__adddf3>
 80029ca:	9a07      	ldr	r2, [sp, #28]
 80029cc:	4b37      	ldr	r3, [pc, #220]	; (8002aac <__ieee754_pow+0x774>)
 80029ce:	4413      	add	r3, r2
 80029d0:	e9d3 2300 	ldrd	r2, r3, [r3]
 80029d4:	f7fd fc06 	bl	80001e4 <__adddf3>
 80029d8:	4682      	mov	sl, r0
 80029da:	9805      	ldr	r0, [sp, #20]
 80029dc:	468b      	mov	fp, r1
 80029de:	f7fd fd4d 	bl	800047c <__aeabi_i2d>
 80029e2:	9a07      	ldr	r2, [sp, #28]
 80029e4:	4b32      	ldr	r3, [pc, #200]	; (8002ab0 <__ieee754_pow+0x778>)
 80029e6:	4413      	add	r3, r2
 80029e8:	e9d3 8900 	ldrd	r8, r9, [r3]
 80029ec:	4606      	mov	r6, r0
 80029ee:	460f      	mov	r7, r1
 80029f0:	4652      	mov	r2, sl
 80029f2:	465b      	mov	r3, fp
 80029f4:	ec51 0b18 	vmov	r0, r1, d8
 80029f8:	f7fd fbf4 	bl	80001e4 <__adddf3>
 80029fc:	4642      	mov	r2, r8
 80029fe:	464b      	mov	r3, r9
 8002a00:	f7fd fbf0 	bl	80001e4 <__adddf3>
 8002a04:	4632      	mov	r2, r6
 8002a06:	463b      	mov	r3, r7
 8002a08:	f7fd fbec 	bl	80001e4 <__adddf3>
 8002a0c:	2000      	movs	r0, #0
 8002a0e:	4632      	mov	r2, r6
 8002a10:	463b      	mov	r3, r7
 8002a12:	4604      	mov	r4, r0
 8002a14:	460d      	mov	r5, r1
 8002a16:	f7fd fbe3 	bl	80001e0 <__aeabi_dsub>
 8002a1a:	4642      	mov	r2, r8
 8002a1c:	464b      	mov	r3, r9
 8002a1e:	f7fd fbdf 	bl	80001e0 <__aeabi_dsub>
 8002a22:	ec53 2b18 	vmov	r2, r3, d8
 8002a26:	f7fd fbdb 	bl	80001e0 <__aeabi_dsub>
 8002a2a:	4602      	mov	r2, r0
 8002a2c:	460b      	mov	r3, r1
 8002a2e:	4650      	mov	r0, sl
 8002a30:	4659      	mov	r1, fp
 8002a32:	e610      	b.n	8002656 <__ieee754_pow+0x31e>
 8002a34:	2401      	movs	r4, #1
 8002a36:	e6a1      	b.n	800277c <__ieee754_pow+0x444>
 8002a38:	ed9f 7b13 	vldr	d7, [pc, #76]	; 8002a88 <__ieee754_pow+0x750>
 8002a3c:	e617      	b.n	800266e <__ieee754_pow+0x336>
 8002a3e:	bf00      	nop
 8002a40:	4a454eef 	.word	0x4a454eef
 8002a44:	3fca7e28 	.word	0x3fca7e28
 8002a48:	93c9db65 	.word	0x93c9db65
 8002a4c:	3fcd864a 	.word	0x3fcd864a
 8002a50:	a91d4101 	.word	0xa91d4101
 8002a54:	3fd17460 	.word	0x3fd17460
 8002a58:	518f264d 	.word	0x518f264d
 8002a5c:	3fd55555 	.word	0x3fd55555
 8002a60:	db6fabff 	.word	0xdb6fabff
 8002a64:	3fdb6db6 	.word	0x3fdb6db6
 8002a68:	33333303 	.word	0x33333303
 8002a6c:	3fe33333 	.word	0x3fe33333
 8002a70:	e0000000 	.word	0xe0000000
 8002a74:	3feec709 	.word	0x3feec709
 8002a78:	dc3a03fd 	.word	0xdc3a03fd
 8002a7c:	3feec709 	.word	0x3feec709
 8002a80:	145b01f5 	.word	0x145b01f5
 8002a84:	be3e2fe0 	.word	0xbe3e2fe0
 8002a88:	00000000 	.word	0x00000000
 8002a8c:	3ff00000 	.word	0x3ff00000
 8002a90:	7ff00000 	.word	0x7ff00000
 8002a94:	43400000 	.word	0x43400000
 8002a98:	0003988e 	.word	0x0003988e
 8002a9c:	000bb679 	.word	0x000bb679
 8002aa0:	08002f50 	.word	0x08002f50
 8002aa4:	3ff00000 	.word	0x3ff00000
 8002aa8:	40080000 	.word	0x40080000
 8002aac:	08002f70 	.word	0x08002f70
 8002ab0:	08002f60 	.word	0x08002f60
 8002ab4:	a3b3      	add	r3, pc, #716	; (adr r3, 8002d84 <__ieee754_pow+0xa4c>)
 8002ab6:	e9d3 2300 	ldrd	r2, r3, [r3]
 8002aba:	4640      	mov	r0, r8
 8002abc:	4649      	mov	r1, r9
 8002abe:	f7fd fb91 	bl	80001e4 <__adddf3>
 8002ac2:	4622      	mov	r2, r4
 8002ac4:	ec41 0b1a 	vmov	d10, r0, r1
 8002ac8:	462b      	mov	r3, r5
 8002aca:	4630      	mov	r0, r6
 8002acc:	4639      	mov	r1, r7
 8002ace:	f7fd fb87 	bl	80001e0 <__aeabi_dsub>
 8002ad2:	4602      	mov	r2, r0
 8002ad4:	460b      	mov	r3, r1
 8002ad6:	ec51 0b1a 	vmov	r0, r1, d10
 8002ada:	f7fd ffc9 	bl	8000a70 <__aeabi_dcmpgt>
 8002ade:	2800      	cmp	r0, #0
 8002ae0:	f47f ae04 	bne.w	80026ec <__ieee754_pow+0x3b4>
 8002ae4:	4aa2      	ldr	r2, [pc, #648]	; (8002d70 <__ieee754_pow+0xa38>)
 8002ae6:	f02b 4300 	bic.w	r3, fp, #2147483648	; 0x80000000
 8002aea:	4293      	cmp	r3, r2
 8002aec:	f340 8107 	ble.w	8002cfe <__ieee754_pow+0x9c6>
 8002af0:	151b      	asrs	r3, r3, #20
 8002af2:	f2a3 33fe 	subw	r3, r3, #1022	; 0x3fe
 8002af6:	f44f 1a80 	mov.w	sl, #1048576	; 0x100000
 8002afa:	fa4a fa03 	asr.w	sl, sl, r3
 8002afe:	44da      	add	sl, fp
 8002b00:	f3ca 510a 	ubfx	r1, sl, #20, #11
 8002b04:	489b      	ldr	r0, [pc, #620]	; (8002d74 <__ieee754_pow+0xa3c>)
 8002b06:	f2a1 31ff 	subw	r1, r1, #1023	; 0x3ff
 8002b0a:	4108      	asrs	r0, r1
 8002b0c:	ea00 030a 	and.w	r3, r0, sl
 8002b10:	f3ca 0a13 	ubfx	sl, sl, #0, #20
 8002b14:	f1c1 0114 	rsb	r1, r1, #20
 8002b18:	f44a 1a80 	orr.w	sl, sl, #1048576	; 0x100000
 8002b1c:	fa4a fa01 	asr.w	sl, sl, r1
 8002b20:	f1bb 0f00 	cmp.w	fp, #0
 8002b24:	f04f 0200 	mov.w	r2, #0
 8002b28:	4620      	mov	r0, r4
 8002b2a:	4629      	mov	r1, r5
 8002b2c:	bfb8      	it	lt
 8002b2e:	f1ca 0a00 	rsblt	sl, sl, #0
 8002b32:	f7fd fb55 	bl	80001e0 <__aeabi_dsub>
 8002b36:	ec41 0b19 	vmov	d9, r0, r1
 8002b3a:	4642      	mov	r2, r8
 8002b3c:	464b      	mov	r3, r9
 8002b3e:	ec51 0b19 	vmov	r0, r1, d9
 8002b42:	f7fd fb4f 	bl	80001e4 <__adddf3>
 8002b46:	a37a      	add	r3, pc, #488	; (adr r3, 8002d30 <__ieee754_pow+0x9f8>)
 8002b48:	e9d3 2300 	ldrd	r2, r3, [r3]
 8002b4c:	2000      	movs	r0, #0
 8002b4e:	4604      	mov	r4, r0
 8002b50:	460d      	mov	r5, r1
 8002b52:	f7fd fcfd 	bl	8000550 <__aeabi_dmul>
 8002b56:	ec53 2b19 	vmov	r2, r3, d9
 8002b5a:	4606      	mov	r6, r0
 8002b5c:	460f      	mov	r7, r1
 8002b5e:	4620      	mov	r0, r4
 8002b60:	4629      	mov	r1, r5
 8002b62:	f7fd fb3d 	bl	80001e0 <__aeabi_dsub>
 8002b66:	4602      	mov	r2, r0
 8002b68:	460b      	mov	r3, r1
 8002b6a:	4640      	mov	r0, r8
 8002b6c:	4649      	mov	r1, r9
 8002b6e:	f7fd fb37 	bl	80001e0 <__aeabi_dsub>
 8002b72:	a371      	add	r3, pc, #452	; (adr r3, 8002d38 <__ieee754_pow+0xa00>)
 8002b74:	e9d3 2300 	ldrd	r2, r3, [r3]
 8002b78:	f7fd fcea 	bl	8000550 <__aeabi_dmul>
 8002b7c:	a370      	add	r3, pc, #448	; (adr r3, 8002d40 <__ieee754_pow+0xa08>)
 8002b7e:	e9d3 2300 	ldrd	r2, r3, [r3]
 8002b82:	4680      	mov	r8, r0
 8002b84:	4689      	mov	r9, r1
 8002b86:	4620      	mov	r0, r4
 8002b88:	4629      	mov	r1, r5
 8002b8a:	f7fd fce1 	bl	8000550 <__aeabi_dmul>
 8002b8e:	4602      	mov	r2, r0
 8002b90:	460b      	mov	r3, r1
 8002b92:	4640      	mov	r0, r8
 8002b94:	4649      	mov	r1, r9
 8002b96:	f7fd fb25 	bl	80001e4 <__adddf3>
 8002b9a:	4604      	mov	r4, r0
 8002b9c:	460d      	mov	r5, r1
 8002b9e:	4602      	mov	r2, r0
 8002ba0:	460b      	mov	r3, r1
 8002ba2:	4630      	mov	r0, r6
 8002ba4:	4639      	mov	r1, r7
 8002ba6:	f7fd fb1d 	bl	80001e4 <__adddf3>
 8002baa:	4632      	mov	r2, r6
 8002bac:	463b      	mov	r3, r7
 8002bae:	4680      	mov	r8, r0
 8002bb0:	4689      	mov	r9, r1
 8002bb2:	f7fd fb15 	bl	80001e0 <__aeabi_dsub>
 8002bb6:	4602      	mov	r2, r0
 8002bb8:	460b      	mov	r3, r1
 8002bba:	4620      	mov	r0, r4
 8002bbc:	4629      	mov	r1, r5
 8002bbe:	f7fd fb0f 	bl	80001e0 <__aeabi_dsub>
 8002bc2:	4642      	mov	r2, r8
 8002bc4:	4606      	mov	r6, r0
 8002bc6:	460f      	mov	r7, r1
 8002bc8:	464b      	mov	r3, r9
 8002bca:	4640      	mov	r0, r8
 8002bcc:	4649      	mov	r1, r9
 8002bce:	f7fd fcbf 	bl	8000550 <__aeabi_dmul>
 8002bd2:	a35d      	add	r3, pc, #372	; (adr r3, 8002d48 <__ieee754_pow+0xa10>)
 8002bd4:	e9d3 2300 	ldrd	r2, r3, [r3]
 8002bd8:	4604      	mov	r4, r0
 8002bda:	460d      	mov	r5, r1
 8002bdc:	f7fd fcb8 	bl	8000550 <__aeabi_dmul>
 8002be0:	a35b      	add	r3, pc, #364	; (adr r3, 8002d50 <__ieee754_pow+0xa18>)
 8002be2:	e9d3 2300 	ldrd	r2, r3, [r3]
 8002be6:	f7fd fafb 	bl	80001e0 <__aeabi_dsub>
 8002bea:	4622      	mov	r2, r4
 8002bec:	462b      	mov	r3, r5
 8002bee:	f7fd fcaf 	bl	8000550 <__aeabi_dmul>
 8002bf2:	a359      	add	r3, pc, #356	; (adr r3, 8002d58 <__ieee754_pow+0xa20>)
 8002bf4:	e9d3 2300 	ldrd	r2, r3, [r3]
 8002bf8:	f7fd faf4 	bl	80001e4 <__adddf3>
 8002bfc:	4622      	mov	r2, r4
 8002bfe:	462b      	mov	r3, r5
 8002c00:	f7fd fca6 	bl	8000550 <__aeabi_dmul>
 8002c04:	a356      	add	r3, pc, #344	; (adr r3, 8002d60 <__ieee754_pow+0xa28>)
 8002c06:	e9d3 2300 	ldrd	r2, r3, [r3]
 8002c0a:	f7fd fae9 	bl	80001e0 <__aeabi_dsub>
 8002c0e:	4622      	mov	r2, r4
 8002c10:	462b      	mov	r3, r5
 8002c12:	f7fd fc9d 	bl	8000550 <__aeabi_dmul>
 8002c16:	a354      	add	r3, pc, #336	; (adr r3, 8002d68 <__ieee754_pow+0xa30>)
 8002c18:	e9d3 2300 	ldrd	r2, r3, [r3]
 8002c1c:	f7fd fae2 	bl	80001e4 <__adddf3>
 8002c20:	4622      	mov	r2, r4
 8002c22:	462b      	mov	r3, r5
 8002c24:	f7fd fc94 	bl	8000550 <__aeabi_dmul>
 8002c28:	4602      	mov	r2, r0
 8002c2a:	460b      	mov	r3, r1
 8002c2c:	4640      	mov	r0, r8
 8002c2e:	4649      	mov	r1, r9
 8002c30:	f7fd fad6 	bl	80001e0 <__aeabi_dsub>
 8002c34:	4604      	mov	r4, r0
 8002c36:	460d      	mov	r5, r1
 8002c38:	4602      	mov	r2, r0
 8002c3a:	460b      	mov	r3, r1
 8002c3c:	4640      	mov	r0, r8
 8002c3e:	4649      	mov	r1, r9
 8002c40:	f7fd fc86 	bl	8000550 <__aeabi_dmul>
 8002c44:	2200      	movs	r2, #0
 8002c46:	ec41 0b19 	vmov	d9, r0, r1
 8002c4a:	f04f 4380 	mov.w	r3, #1073741824	; 0x40000000
 8002c4e:	4620      	mov	r0, r4
 8002c50:	4629      	mov	r1, r5
 8002c52:	f7fd fac5 	bl	80001e0 <__aeabi_dsub>
 8002c56:	4602      	mov	r2, r0
 8002c58:	460b      	mov	r3, r1
 8002c5a:	ec51 0b19 	vmov	r0, r1, d9
 8002c5e:	f7fd fda1 	bl	80007a4 <__aeabi_ddiv>
 8002c62:	4632      	mov	r2, r6
 8002c64:	4604      	mov	r4, r0
 8002c66:	460d      	mov	r5, r1
 8002c68:	463b      	mov	r3, r7
 8002c6a:	4640      	mov	r0, r8
 8002c6c:	4649      	mov	r1, r9
 8002c6e:	f7fd fc6f 	bl	8000550 <__aeabi_dmul>
 8002c72:	4632      	mov	r2, r6
 8002c74:	463b      	mov	r3, r7
 8002c76:	f7fd fab5 	bl	80001e4 <__adddf3>
 8002c7a:	4602      	mov	r2, r0
 8002c7c:	460b      	mov	r3, r1
 8002c7e:	4620      	mov	r0, r4
 8002c80:	4629      	mov	r1, r5
 8002c82:	f7fd faad 	bl	80001e0 <__aeabi_dsub>
 8002c86:	4642      	mov	r2, r8
 8002c88:	464b      	mov	r3, r9
 8002c8a:	f7fd faa9 	bl	80001e0 <__aeabi_dsub>
 8002c8e:	460b      	mov	r3, r1
 8002c90:	4602      	mov	r2, r0
 8002c92:	4939      	ldr	r1, [pc, #228]	; (8002d78 <__ieee754_pow+0xa40>)
 8002c94:	2000      	movs	r0, #0
 8002c96:	f7fd faa3 	bl	80001e0 <__aeabi_dsub>
 8002c9a:	ec41 0b10 	vmov	d0, r0, r1
 8002c9e:	ee10 3a90 	vmov	r3, s1
 8002ca2:	eb03 530a 	add.w	r3, r3, sl, lsl #20
 8002ca6:	f5b3 1f80 	cmp.w	r3, #1048576	; 0x100000
 8002caa:	da2b      	bge.n	8002d04 <__ieee754_pow+0x9cc>
 8002cac:	4650      	mov	r0, sl
 8002cae:	f000 f89f 	bl	8002df0 <scalbn>
 8002cb2:	ec51 0b10 	vmov	r0, r1, d0
 8002cb6:	ec53 2b18 	vmov	r2, r3, d8
 8002cba:	f7ff bbee 	b.w	800249a <__ieee754_pow+0x162>
 8002cbe:	4b2f      	ldr	r3, [pc, #188]	; (8002d7c <__ieee754_pow+0xa44>)
 8002cc0:	f021 4600 	bic.w	r6, r1, #2147483648	; 0x80000000
 8002cc4:	429e      	cmp	r6, r3
 8002cc6:	f77f af0d 	ble.w	8002ae4 <__ieee754_pow+0x7ac>
 8002cca:	4b2d      	ldr	r3, [pc, #180]	; (8002d80 <__ieee754_pow+0xa48>)
 8002ccc:	440b      	add	r3, r1
 8002cce:	4303      	orrs	r3, r0
 8002cd0:	d009      	beq.n	8002ce6 <__ieee754_pow+0x9ae>
 8002cd2:	ec51 0b18 	vmov	r0, r1, d8
 8002cd6:	2200      	movs	r2, #0
 8002cd8:	2300      	movs	r3, #0
 8002cda:	f7fd feab 	bl	8000a34 <__aeabi_dcmplt>
 8002cde:	3800      	subs	r0, #0
 8002ce0:	bf18      	it	ne
 8002ce2:	2001      	movne	r0, #1
 8002ce4:	e448      	b.n	8002578 <__ieee754_pow+0x240>
 8002ce6:	4622      	mov	r2, r4
 8002ce8:	462b      	mov	r3, r5
 8002cea:	f7fd fa79 	bl	80001e0 <__aeabi_dsub>
 8002cee:	4642      	mov	r2, r8
 8002cf0:	464b      	mov	r3, r9
 8002cf2:	f7fd feb3 	bl	8000a5c <__aeabi_dcmpge>
 8002cf6:	2800      	cmp	r0, #0
 8002cf8:	f43f aef4 	beq.w	8002ae4 <__ieee754_pow+0x7ac>
 8002cfc:	e7e9      	b.n	8002cd2 <__ieee754_pow+0x99a>
 8002cfe:	f04f 0a00 	mov.w	sl, #0
 8002d02:	e71a      	b.n	8002b3a <__ieee754_pow+0x802>
 8002d04:	ec51 0b10 	vmov	r0, r1, d0
 8002d08:	4619      	mov	r1, r3
 8002d0a:	e7d4      	b.n	8002cb6 <__ieee754_pow+0x97e>
 8002d0c:	491a      	ldr	r1, [pc, #104]	; (8002d78 <__ieee754_pow+0xa40>)
 8002d0e:	2000      	movs	r0, #0
 8002d10:	f7ff bb31 	b.w	8002376 <__ieee754_pow+0x3e>
 8002d14:	2000      	movs	r0, #0
 8002d16:	2100      	movs	r1, #0
 8002d18:	f7ff bb2d 	b.w	8002376 <__ieee754_pow+0x3e>
 8002d1c:	4630      	mov	r0, r6
 8002d1e:	4639      	mov	r1, r7
 8002d20:	f7ff bb29 	b.w	8002376 <__ieee754_pow+0x3e>
 8002d24:	9204      	str	r2, [sp, #16]
 8002d26:	f7ff bb7b 	b.w	8002420 <__ieee754_pow+0xe8>
 8002d2a:	2300      	movs	r3, #0
 8002d2c:	f7ff bb65 	b.w	80023fa <__ieee754_pow+0xc2>
 8002d30:	00000000 	.word	0x00000000
 8002d34:	3fe62e43 	.word	0x3fe62e43
 8002d38:	fefa39ef 	.word	0xfefa39ef
 8002d3c:	3fe62e42 	.word	0x3fe62e42
 8002d40:	0ca86c39 	.word	0x0ca86c39
 8002d44:	be205c61 	.word	0xbe205c61
 8002d48:	72bea4d0 	.word	0x72bea4d0
 8002d4c:	3e663769 	.word	0x3e663769
 8002d50:	c5d26bf1 	.word	0xc5d26bf1
 8002d54:	3ebbbd41 	.word	0x3ebbbd41
 8002d58:	af25de2c 	.word	0xaf25de2c
 8002d5c:	3f11566a 	.word	0x3f11566a
 8002d60:	16bebd93 	.word	0x16bebd93
 8002d64:	3f66c16c 	.word	0x3f66c16c
 8002d68:	5555553e 	.word	0x5555553e
 8002d6c:	3fc55555 	.word	0x3fc55555
 8002d70:	3fe00000 	.word	0x3fe00000
 8002d74:	fff00000 	.word	0xfff00000
 8002d78:	3ff00000 	.word	0x3ff00000
 8002d7c:	4090cbff 	.word	0x4090cbff
 8002d80:	3f6f3400 	.word	0x3f6f3400
 8002d84:	652b82fe 	.word	0x652b82fe
 8002d88:	3c971547 	.word	0x3c971547

08002d8c <with_errno>:
 8002d8c:	b570      	push	{r4, r5, r6, lr}
 8002d8e:	4604      	mov	r4, r0
 8002d90:	460d      	mov	r5, r1
 8002d92:	4616      	mov	r6, r2
 8002d94:	f7fe fa96 	bl	80012c4 <__errno>
 8002d98:	4629      	mov	r1, r5
 8002d9a:	6006      	str	r6, [r0, #0]
 8002d9c:	4620      	mov	r0, r4
 8002d9e:	bd70      	pop	{r4, r5, r6, pc}

08002da0 <xflow>:
 8002da0:	b537      	push	{r0, r1, r2, r4, r5, lr}
 8002da2:	4614      	mov	r4, r2
 8002da4:	461d      	mov	r5, r3
 8002da6:	b108      	cbz	r0, 8002dac <xflow+0xc>
 8002da8:	f103 4300 	add.w	r3, r3, #2147483648	; 0x80000000
 8002dac:	e9cd 2300 	strd	r2, r3, [sp]
 8002db0:	e9dd 2300 	ldrd	r2, r3, [sp]
 8002db4:	4620      	mov	r0, r4
 8002db6:	4629      	mov	r1, r5
 8002db8:	f7fd fbca 	bl	8000550 <__aeabi_dmul>
 8002dbc:	2222      	movs	r2, #34	; 0x22
 8002dbe:	b003      	add	sp, #12
 8002dc0:	e8bd 4030 	ldmia.w	sp!, {r4, r5, lr}
 8002dc4:	f7ff bfe2 	b.w	8002d8c <with_errno>

08002dc8 <__math_uflow>:
 8002dc8:	b508      	push	{r3, lr}
 8002dca:	2200      	movs	r2, #0
 8002dcc:	f04f 5380 	mov.w	r3, #268435456	; 0x10000000
 8002dd0:	f7ff ffe6 	bl	8002da0 <xflow>
 8002dd4:	ec41 0b10 	vmov	d0, r0, r1
 8002dd8:	bd08      	pop	{r3, pc}

08002dda <__math_oflow>:
 8002dda:	b508      	push	{r3, lr}
 8002ddc:	2200      	movs	r2, #0
 8002dde:	f04f 43e0 	mov.w	r3, #1879048192	; 0x70000000
 8002de2:	f7ff ffdd 	bl	8002da0 <xflow>
 8002de6:	ec41 0b10 	vmov	d0, r0, r1
 8002dea:	bd08      	pop	{r3, pc}
 8002dec:	0000      	movs	r0, r0
	...

08002df0 <scalbn>:
 8002df0:	b570      	push	{r4, r5, r6, lr}
 8002df2:	ec55 4b10 	vmov	r4, r5, d0
 8002df6:	f3c5 510a 	ubfx	r1, r5, #20, #11
 8002dfa:	4606      	mov	r6, r0
 8002dfc:	462b      	mov	r3, r5
 8002dfe:	b999      	cbnz	r1, 8002e28 <scalbn+0x38>
 8002e00:	f025 4300 	bic.w	r3, r5, #2147483648	; 0x80000000
 8002e04:	4323      	orrs	r3, r4
 8002e06:	d03f      	beq.n	8002e88 <scalbn+0x98>
 8002e08:	4b35      	ldr	r3, [pc, #212]	; (8002ee0 <scalbn+0xf0>)
 8002e0a:	4629      	mov	r1, r5
 8002e0c:	ee10 0a10 	vmov	r0, s0
 8002e10:	2200      	movs	r2, #0
 8002e12:	f7fd fb9d 	bl	8000550 <__aeabi_dmul>
 8002e16:	4b33      	ldr	r3, [pc, #204]	; (8002ee4 <scalbn+0xf4>)
 8002e18:	429e      	cmp	r6, r3
 8002e1a:	4604      	mov	r4, r0
 8002e1c:	460d      	mov	r5, r1
 8002e1e:	da10      	bge.n	8002e42 <scalbn+0x52>
 8002e20:	a327      	add	r3, pc, #156	; (adr r3, 8002ec0 <scalbn+0xd0>)
 8002e22:	e9d3 2300 	ldrd	r2, r3, [r3]
 8002e26:	e01f      	b.n	8002e68 <scalbn+0x78>
 8002e28:	f240 72ff 	movw	r2, #2047	; 0x7ff
 8002e2c:	4291      	cmp	r1, r2
 8002e2e:	d10c      	bne.n	8002e4a <scalbn+0x5a>
 8002e30:	ee10 2a10 	vmov	r2, s0
 8002e34:	4620      	mov	r0, r4
 8002e36:	4629      	mov	r1, r5
 8002e38:	f7fd f9d4 	bl	80001e4 <__adddf3>
 8002e3c:	4604      	mov	r4, r0
 8002e3e:	460d      	mov	r5, r1
 8002e40:	e022      	b.n	8002e88 <scalbn+0x98>
 8002e42:	460b      	mov	r3, r1
 8002e44:	f3c1 510a 	ubfx	r1, r1, #20, #11
 8002e48:	3936      	subs	r1, #54	; 0x36
 8002e4a:	f24c 3250 	movw	r2, #50000	; 0xc350
 8002e4e:	4296      	cmp	r6, r2
 8002e50:	dd0d      	ble.n	8002e6e <scalbn+0x7e>
 8002e52:	2d00      	cmp	r5, #0
 8002e54:	a11c      	add	r1, pc, #112	; (adr r1, 8002ec8 <scalbn+0xd8>)
 8002e56:	e9d1 0100 	ldrd	r0, r1, [r1]
 8002e5a:	da02      	bge.n	8002e62 <scalbn+0x72>
 8002e5c:	a11c      	add	r1, pc, #112	; (adr r1, 8002ed0 <scalbn+0xe0>)
 8002e5e:	e9d1 0100 	ldrd	r0, r1, [r1]
 8002e62:	a319      	add	r3, pc, #100	; (adr r3, 8002ec8 <scalbn+0xd8>)
 8002e64:	e9d3 2300 	ldrd	r2, r3, [r3]
 8002e68:	f7fd fb72 	bl	8000550 <__aeabi_dmul>
 8002e6c:	e7e6      	b.n	8002e3c <scalbn+0x4c>
 8002e6e:	1872      	adds	r2, r6, r1
 8002e70:	f240 71fe 	movw	r1, #2046	; 0x7fe
 8002e74:	428a      	cmp	r2, r1
 8002e76:	dcec      	bgt.n	8002e52 <scalbn+0x62>
 8002e78:	2a00      	cmp	r2, #0
 8002e7a:	dd08      	ble.n	8002e8e <scalbn+0x9e>
 8002e7c:	f023 43ff 	bic.w	r3, r3, #2139095040	; 0x7f800000
 8002e80:	f423 03e0 	bic.w	r3, r3, #7340032	; 0x700000
 8002e84:	ea43 5502 	orr.w	r5, r3, r2, lsl #20
 8002e88:	ec45 4b10 	vmov	d0, r4, r5
 8002e8c:	bd70      	pop	{r4, r5, r6, pc}
 8002e8e:	f112 0f35 	cmn.w	r2, #53	; 0x35
 8002e92:	da08      	bge.n	8002ea6 <scalbn+0xb6>
 8002e94:	2d00      	cmp	r5, #0
 8002e96:	a10a      	add	r1, pc, #40	; (adr r1, 8002ec0 <scalbn+0xd0>)
 8002e98:	e9d1 0100 	ldrd	r0, r1, [r1]
 8002e9c:	dac0      	bge.n	8002e20 <scalbn+0x30>
 8002e9e:	a10e      	add	r1, pc, #56	; (adr r1, 8002ed8 <scalbn+0xe8>)
 8002ea0:	e9d1 0100 	ldrd	r0, r1, [r1]
 8002ea4:	e7bc      	b.n	8002e20 <scalbn+0x30>
 8002ea6:	f023 43ff 	bic.w	r3, r3, #2139095040	; 0x7f800000
 8002eaa:	3236      	adds	r2, #54	; 0x36
 8002eac:	f423 03e0 	bic.w	r3, r3, #7340032	; 0x700000
 8002eb0:	ea43 5102 	orr.w	r1, r3, r2, lsl #20
 8002eb4:	4620      	mov	r0, r4
 8002eb6:	4b0c      	ldr	r3, [pc, #48]	; (8002ee8 <scalbn+0xf8>)
 8002eb8:	2200      	movs	r2, #0
 8002eba:	e7d5      	b.n	8002e68 <scalbn+0x78>
 8002ebc:	f3af 8000 	nop.w
 8002ec0:	c2f8f359 	.word	0xc2f8f359
 8002ec4:	01a56e1f 	.word	0x01a56e1f
 8002ec8:	8800759c 	.word	0x8800759c
 8002ecc:	7e37e43c 	.word	0x7e37e43c
 8002ed0:	8800759c 	.word	0x8800759c
 8002ed4:	fe37e43c 	.word	0xfe37e43c
 8002ed8:	c2f8f359 	.word	0xc2f8f359
 8002edc:	81a56e1f 	.word	0x81a56e1f
 8002ee0:	43500000 	.word	0x43500000
 8002ee4:	ffff3cb0 	.word	0xffff3cb0
 8002ee8:	3c900000 	.word	0x3c900000

08002eec <_init>:
 8002eec:	b5f8      	push	{r3, r4, r5, r6, r7, lr}
 8002eee:	bf00      	nop
 8002ef0:	bcf8      	pop	{r3, r4, r5, r6, r7}
 8002ef2:	bc08      	pop	{r3}
 8002ef4:	469e      	mov	lr, r3
 8002ef6:	4770      	bx	lr

08002ef8 <_fini>:
 8002ef8:	b5f8      	push	{r3, r4, r5, r6, r7, lr}
 8002efa:	bf00      	nop
 8002efc:	bcf8      	pop	{r3, r4, r5, r6, r7}
 8002efe:	bc08      	pop	{r3}
 8002f00:	469e      	mov	lr, r3
 8002f02:	4770      	bx	lr
